
opensolder.elf:     file format elf32-littlearm

Sections:
Idx Name          Size      VMA       LMA       File off  Algn
  0 .isr_vector   000000c0  08000000  08000000  00001000  2**0
                  CONTENTS, ALLOC, LOAD, READONLY, DATA
  1 .text         00004544  080000c0  080000c0  000010c0  2**2
                  CONTENTS, ALLOC, LOAD, READONLY, CODE
  2 .rodata       00001c24  08004604  08004604  00005604  2**2
                  CONTENTS, ALLOC, LOAD, READONLY, DATA
  3 .ARM.extab    00000000  08006228  08006228  00008118  2**0
                  CONTENTS
  4 .ARM          00000000  08006228  08006228  00008118  2**0
                  CONTENTS
  5 .preinit_array 00000000  08006228  08006228  00008118  2**0
                  CONTENTS, ALLOC, LOAD, DATA
  6 .init_array   00000004  08006228  08006228  00007228  2**2
                  CONTENTS, ALLOC, LOAD, DATA
  7 .fini_array   00000004  0800622c  0800622c  0000722c  2**2
                  CONTENTS, ALLOC, LOAD, DATA
  8 .data         00000118  20000000  08006230  00008000  2**2
                  CONTENTS, ALLOC, LOAD, DATA
  9 .bss          0000085c  20000118  08006348  00008118  2**2
                  ALLOC
 10 ._user_heap_stack 00000604  20000974  08006348  00008974  2**0
                  ALLOC
 11 .ARM.attributes 00000028  00000000  00000000  00008118  2**0
                  CONTENTS, READONLY
 12 .comment      00000043  00000000  00000000  00008140  2**0
                  CONTENTS, READONLY
 13 .debug_frame  00000624  00000000  00000000  00008184  2**2
                  CONTENTS, READONLY, DEBUGGING, OCTETS

Disassembly of section .text:

080000c0 <__do_global_dtors_aux>:
 80000c0:	b510      	push	{r4, lr}
 80000c2:	4c06      	ldr	r4, [pc, #24]	@ (80000dc <__do_global_dtors_aux+0x1c>)
 80000c4:	7823      	ldrb	r3, [r4, #0]
 80000c6:	2b00      	cmp	r3, #0
 80000c8:	d107      	bne.n	80000da <__do_global_dtors_aux+0x1a>
 80000ca:	4b05      	ldr	r3, [pc, #20]	@ (80000e0 <__do_global_dtors_aux+0x20>)
 80000cc:	2b00      	cmp	r3, #0
 80000ce:	d002      	beq.n	80000d6 <__do_global_dtors_aux+0x16>
 80000d0:	4804      	ldr	r0, [pc, #16]	@ (80000e4 <__do_global_dtors_aux+0x24>)
 80000d2:	e000      	b.n	80000d6 <__do_global_dtors_aux+0x16>
 80000d4:	bf00      	nop
 80000d6:	2301      	movs	r3, #1
 80000d8:	7023      	strb	r3, [r4, #0]
 80000da:	bd10      	pop	{r4, pc}
 80000dc:	20000118 	.word	0x20000118
 80000e0:	00000000 	.word	0x00000000
 80000e4:	080045ec 	.word	0x080045ec

080000e8 <frame_dummy>:
 80000e8:	4b04      	ldr	r3, [pc, #16]	@ (80000fc <frame_dummy+0x14>)
 80000ea:	b510      	push	{r4, lr}
 80000ec:	2b00      	cmp	r3, #0
 80000ee:	d003      	beq.n	80000f8 <frame_dummy+0x10>
 80000f0:	4903      	ldr	r1, [pc, #12]	@ (8000100 <frame_dummy+0x18>)
 80000f2:	4804      	ldr	r0, [pc, #16]	@ (8000104 <frame_dummy+0x1c>)
 80000f4:	e000      	b.n	80000f8 <frame_dummy+0x10>
 80000f6:	bf00      	nop
 80000f8:	bd10      	pop	{r4, pc}
 80000fa:	46c0      	nop			@ (mov r8, r8)
 80000fc:	00000000 	.word	0x00000000
 8000100:	2000011c 	.word	0x2000011c
 8000104:	080045ec 	.word	0x080045ec

08000108 <strlen>:
 8000108:	2300      	movs	r3, #0
 800010a:	5cc2      	ldrb	r2, [r0, r3]
 800010c:	3301      	adds	r3, #1
 800010e:	2a00      	cmp	r2, #0
 8000110:	d1fb      	bne.n	800010a <strlen+0x2>
 8000112:	1e58      	subs	r0, r3, #1
 8000114:	4770      	bx	lr
	...

08000118 <__gnu_thumb1_case_uqi>:
 8000118:	b402      	push	{r1}
 800011a:	4671      	mov	r1, lr
 800011c:	0849      	lsrs	r1, r1, #1
 800011e:	0049      	lsls	r1, r1, #1
 8000120:	5c09      	ldrb	r1, [r1, r0]
 8000122:	0049      	lsls	r1, r1, #1
 8000124:	448e      	add	lr, r1
 8000126:	bc02      	pop	{r1}
 8000128:	4770      	bx	lr
 800012a:	46c0      	nop			@ (mov r8, r8)

0800012c <__gnu_thumb1_case_shi>:
 800012c:	b403      	push	{r0, r1}
 800012e:	4671      	mov	r1, lr
 8000130:	0849      	lsrs	r1, r1, #1
 8000132:	0040      	lsls	r0, r0, #1
 8000134:	0049      	lsls	r1, r1, #1
 8000136:	5e09      	ldrsh	r1, [r1, r0]
 8000138:	0049      	lsls	r1, r1, #1
 800013a:	448e      	add	lr, r1
 800013c:	bc03      	pop	{r0, r1}
 800013e:	4770      	bx	lr

08000140 <__udivsi3>:
 8000140:	2200      	movs	r2, #0
 8000142:	0843      	lsrs	r3, r0, #1
 8000144:	428b      	cmp	r3, r1
 8000146:	d374      	bcc.n	8000232 <__udivsi3+0xf2>
 8000148:	0903      	lsrs	r3, r0, #4
 800014a:	428b      	cmp	r3, r1
 800014c:	d35f      	bcc.n	800020e <__udivsi3+0xce>
 800014e:	0a03      	lsrs	r3, r0, #8
 8000150:	428b      	cmp	r3, r1
 8000152:	d344      	bcc.n	80001de <__udivsi3+0x9e>
 8000154:	0b03      	lsrs	r3, r0, #12
 8000156:	428b      	cmp	r3, r1
 8000158:	d328      	bcc.n	80001ac <__udivsi3+0x6c>
 800015a:	0c03      	lsrs	r3, r0, #16
 800015c:	428b      	cmp	r3, r1
 800015e:	d30d      	bcc.n	800017c <__udivsi3+0x3c>
 8000160:	22ff      	movs	r2, #255	@ 0xff
 8000162:	0209      	lsls	r1, r1, #8
 8000164:	ba12      	rev	r2, r2
 8000166:	0c03      	lsrs	r3, r0, #16
 8000168:	428b      	cmp	r3, r1
 800016a:	d302      	bcc.n	8000172 <__udivsi3+0x32>
 800016c:	1212      	asrs	r2, r2, #8
 800016e:	0209      	lsls	r1, r1, #8
 8000170:	d065      	beq.n	800023e <__udivsi3+0xfe>
 8000172:	0b03      	lsrs	r3, r0, #12
 8000174:	428b      	cmp	r3, r1
 8000176:	d319      	bcc.n	80001ac <__udivsi3+0x6c>
 8000178:	e000      	b.n	800017c <__udivsi3+0x3c>
 800017a:	0a09      	lsrs	r1, r1, #8
 800017c:	0bc3      	lsrs	r3, r0, #15
 800017e:	428b      	cmp	r3, r1
 8000180:	d301      	bcc.n	8000186 <__udivsi3+0x46>
 8000182:	03cb      	lsls	r3, r1, #15
 8000184:	1ac0      	subs	r0, r0, r3
 8000186:	4152      	adcs	r2, r2
 8000188:	0b83      	lsrs	r3, r0, #14
 800018a:	428b      	cmp	r3, r1
 800018c:	d301      	bcc.n	8000192 <__udivsi3+0x52>
 800018e:	038b      	lsls	r3, r1, #14
 8000190:	1ac0      	subs	r0, r0, r3
 8000192:	4152      	adcs	r2, r2
 8000194:	0b43      	lsrs	r3, r0, #13
 8000196:	428b      	cmp	r3, r1
 8000198:	d301      	bcc.n	800019e <__udivsi3+0x5e>
 800019a:	034b      	lsls	r3, r1, #13
 800019c:	1ac0      	subs	r0, r0, r3
 800019e:	4152      	adcs	r2, r2
 80001a0:	0b03      	lsrs	r3, r0, #12
 80001a2:	428b      	cmp	r3, r1
 80001a4:	d301      	bcc.n	80001aa <__udivsi3+0x6a>
 80001a6:	030b      	lsls	r3, r1, #12
 80001a8:	1ac0      	subs	r0, r0, r3
 80001aa:	4152      	adcs	r2, r2
 80001ac:	0ac3      	lsrs	r3, r0, #11
 80001ae:	428b      	cmp	r3, r1
 80001b0:	d301      	bcc.n	80001b6 <__udivsi3+0x76>
 80001b2:	02cb      	lsls	r3, r1, #11
 80001b4:	1ac0      	subs	r0, r0, r3
 80001b6:	4152      	adcs	r2, r2
 80001b8:	0a83      	lsrs	r3, r0, #10
 80001ba:	428b      	cmp	r3, r1
 80001bc:	d301      	bcc.n	80001c2 <__udivsi3+0x82>
 80001be:	028b      	lsls	r3, r1, #10
 80001c0:	1ac0      	subs	r0, r0, r3
 80001c2:	4152      	adcs	r2, r2
 80001c4:	0a43      	lsrs	r3, r0, #9
 80001c6:	428b      	cmp	r3, r1
 80001c8:	d301      	bcc.n	80001ce <__udivsi3+0x8e>
 80001ca:	024b      	lsls	r3, r1, #9
 80001cc:	1ac0      	subs	r0, r0, r3
 80001ce:	4152      	adcs	r2, r2
 80001d0:	0a03      	lsrs	r3, r0, #8
 80001d2:	428b      	cmp	r3, r1
 80001d4:	d301      	bcc.n	80001da <__udivsi3+0x9a>
 80001d6:	020b      	lsls	r3, r1, #8
 80001d8:	1ac0      	subs	r0, r0, r3
 80001da:	4152      	adcs	r2, r2
 80001dc:	d2cd      	bcs.n	800017a <__udivsi3+0x3a>
 80001de:	09c3      	lsrs	r3, r0, #7
 80001e0:	428b      	cmp	r3, r1
 80001e2:	d301      	bcc.n	80001e8 <__udivsi3+0xa8>
 80001e4:	01cb      	lsls	r3, r1, #7
 80001e6:	1ac0      	subs	r0, r0, r3
 80001e8:	4152      	adcs	r2, r2
 80001ea:	0983      	lsrs	r3, r0, #6
 80001ec:	428b      	cmp	r3, r1
 80001ee:	d301      	bcc.n	80001f4 <__udivsi3+0xb4>
 80001f0:	018b      	lsls	r3, r1, #6
 80001f2:	1ac0      	subs	r0, r0, r3
 80001f4:	4152      	adcs	r2, r2
 80001f6:	0943      	lsrs	r3, r0, #5
 80001f8:	428b      	cmp	r3, r1
 80001fa:	d301      	bcc.n	8000200 <__udivsi3+0xc0>
 80001fc:	014b      	lsls	r3, r1, #5
 80001fe:	1ac0      	subs	r0, r0, r3
 8000200:	4152      	adcs	r2, r2
 8000202:	0903      	lsrs	r3, r0, #4
 8000204:	428b      	cmp	r3, r1
 8000206:	d301      	bcc.n	800020c <__udivsi3+0xcc>
 8000208:	010b      	lsls	r3, r1, #4
 800020a:	1ac0      	subs	r0, r0, r3
 800020c:	4152      	adcs	r2, r2
 800020e:	08c3      	lsrs	r3, r0, #3
 8000210:	428b      	cmp	r3, r1
 8000212:	d301      	bcc.n	8000218 <__udivsi3+0xd8>
 8000214:	00cb      	lsls	r3, r1, #3
 8000216:	1ac0      	subs	r0, r0, r3
 8000218:	4152      	adcs	r2, r2
 800021a:	0883      	lsrs	r3, r0, #2
 800021c:	428b      	cmp	r3, r1
 800021e:	d301      	bcc.n	8000224 <__udivsi3+0xe4>
 8000220:	008b      	lsls	r3, r1, #2
 8000222:	1ac0      	subs	r0, r0, r3
 8000224:	4152      	adcs	r2, r2
 8000226:	0843      	lsrs	r3, r0, #1
 8000228:	428b      	cmp	r3, r1
 800022a:	d301      	bcc.n	8000230 <__udivsi3+0xf0>
 800022c:	004b      	lsls	r3, r1, #1
 800022e:	1ac0      	subs	r0, r0, r3
 8000230:	4152      	adcs	r2, r2
 8000232:	1a41      	subs	r1, r0, r1
 8000234:	d200      	bcs.n	8000238 <__udivsi3+0xf8>
 8000236:	4601      	mov	r1, r0
 8000238:	4152      	adcs	r2, r2
 800023a:	4610      	mov	r0, r2
 800023c:	4770      	bx	lr
 800023e:	e7ff      	b.n	8000240 <__udivsi3+0x100>
 8000240:	b501      	push	{r0, lr}
 8000242:	2000      	movs	r0, #0
 8000244:	f000 f806 	bl	8000254 <__aeabi_idiv0>
 8000248:	bd02      	pop	{r1, pc}
 800024a:	46c0      	nop			@ (mov r8, r8)

0800024c <__aeabi_uidivmod>:
 800024c:	2900      	cmp	r1, #0
 800024e:	d0f7      	beq.n	8000240 <__udivsi3+0x100>
 8000250:	e776      	b.n	8000140 <__udivsi3>
 8000252:	4770      	bx	lr

08000254 <__aeabi_idiv0>:
 8000254:	4770      	bx	lr
 8000256:	46c0      	nop			@ (mov r8, r8)

08000258 <__aeabi_dmul>:
 8000258:	b5f0      	push	{r4, r5, r6, r7, lr}
 800025a:	4657      	mov	r7, sl
 800025c:	46de      	mov	lr, fp
 800025e:	464e      	mov	r6, r9
 8000260:	4645      	mov	r5, r8
 8000262:	b5e0      	push	{r5, r6, r7, lr}
 8000264:	001f      	movs	r7, r3
 8000266:	030b      	lsls	r3, r1, #12
 8000268:	0b1b      	lsrs	r3, r3, #12
 800026a:	0016      	movs	r6, r2
 800026c:	469a      	mov	sl, r3
 800026e:	0fca      	lsrs	r2, r1, #31
 8000270:	004b      	lsls	r3, r1, #1
 8000272:	0004      	movs	r4, r0
 8000274:	4693      	mov	fp, r2
 8000276:	b087      	sub	sp, #28
 8000278:	0d5b      	lsrs	r3, r3, #21
 800027a:	d100      	bne.n	800027e <__aeabi_dmul+0x26>
 800027c:	e0d5      	b.n	800042a <__aeabi_dmul+0x1d2>
 800027e:	4abb      	ldr	r2, [pc, #748]	@ (800056c <__aeabi_dmul+0x314>)
 8000280:	4293      	cmp	r3, r2
 8000282:	d100      	bne.n	8000286 <__aeabi_dmul+0x2e>
 8000284:	e0f8      	b.n	8000478 <__aeabi_dmul+0x220>
 8000286:	4651      	mov	r1, sl
 8000288:	0f42      	lsrs	r2, r0, #29
 800028a:	00c9      	lsls	r1, r1, #3
 800028c:	430a      	orrs	r2, r1
 800028e:	2180      	movs	r1, #128	@ 0x80
 8000290:	0409      	lsls	r1, r1, #16
 8000292:	4311      	orrs	r1, r2
 8000294:	00c2      	lsls	r2, r0, #3
 8000296:	4691      	mov	r9, r2
 8000298:	4ab5      	ldr	r2, [pc, #724]	@ (8000570 <__aeabi_dmul+0x318>)
 800029a:	468a      	mov	sl, r1
 800029c:	189d      	adds	r5, r3, r2
 800029e:	2300      	movs	r3, #0
 80002a0:	4698      	mov	r8, r3
 80002a2:	9302      	str	r3, [sp, #8]
 80002a4:	033c      	lsls	r4, r7, #12
 80002a6:	007b      	lsls	r3, r7, #1
 80002a8:	0ffa      	lsrs	r2, r7, #31
 80002aa:	0030      	movs	r0, r6
 80002ac:	0b24      	lsrs	r4, r4, #12
 80002ae:	0d5b      	lsrs	r3, r3, #21
 80002b0:	9200      	str	r2, [sp, #0]
 80002b2:	d100      	bne.n	80002b6 <__aeabi_dmul+0x5e>
 80002b4:	e096      	b.n	80003e4 <__aeabi_dmul+0x18c>
 80002b6:	4aad      	ldr	r2, [pc, #692]	@ (800056c <__aeabi_dmul+0x314>)
 80002b8:	4293      	cmp	r3, r2
 80002ba:	d031      	beq.n	8000320 <__aeabi_dmul+0xc8>
 80002bc:	0f72      	lsrs	r2, r6, #29
 80002be:	00e4      	lsls	r4, r4, #3
 80002c0:	4322      	orrs	r2, r4
 80002c2:	2480      	movs	r4, #128	@ 0x80
 80002c4:	0424      	lsls	r4, r4, #16
 80002c6:	4314      	orrs	r4, r2
 80002c8:	4aa9      	ldr	r2, [pc, #676]	@ (8000570 <__aeabi_dmul+0x318>)
 80002ca:	00f0      	lsls	r0, r6, #3
 80002cc:	4694      	mov	ip, r2
 80002ce:	4463      	add	r3, ip
 80002d0:	195b      	adds	r3, r3, r5
 80002d2:	1c5a      	adds	r2, r3, #1
 80002d4:	9201      	str	r2, [sp, #4]
 80002d6:	4642      	mov	r2, r8
 80002d8:	2600      	movs	r6, #0
 80002da:	2a0a      	cmp	r2, #10
 80002dc:	dc42      	bgt.n	8000364 <__aeabi_dmul+0x10c>
 80002de:	465a      	mov	r2, fp
 80002e0:	9900      	ldr	r1, [sp, #0]
 80002e2:	404a      	eors	r2, r1
 80002e4:	4693      	mov	fp, r2
 80002e6:	4642      	mov	r2, r8
 80002e8:	2a02      	cmp	r2, #2
 80002ea:	dc32      	bgt.n	8000352 <__aeabi_dmul+0xfa>
 80002ec:	3a01      	subs	r2, #1
 80002ee:	2a01      	cmp	r2, #1
 80002f0:	d900      	bls.n	80002f4 <__aeabi_dmul+0x9c>
 80002f2:	e149      	b.n	8000588 <__aeabi_dmul+0x330>
 80002f4:	2e02      	cmp	r6, #2
 80002f6:	d100      	bne.n	80002fa <__aeabi_dmul+0xa2>
 80002f8:	e0ca      	b.n	8000490 <__aeabi_dmul+0x238>
 80002fa:	2e01      	cmp	r6, #1
 80002fc:	d13d      	bne.n	800037a <__aeabi_dmul+0x122>
 80002fe:	2300      	movs	r3, #0
 8000300:	2400      	movs	r4, #0
 8000302:	2200      	movs	r2, #0
 8000304:	0010      	movs	r0, r2
 8000306:	465a      	mov	r2, fp
 8000308:	051b      	lsls	r3, r3, #20
 800030a:	4323      	orrs	r3, r4
 800030c:	07d2      	lsls	r2, r2, #31
 800030e:	4313      	orrs	r3, r2
 8000310:	0019      	movs	r1, r3
 8000312:	b007      	add	sp, #28
 8000314:	bcf0      	pop	{r4, r5, r6, r7}
 8000316:	46bb      	mov	fp, r7
 8000318:	46b2      	mov	sl, r6
 800031a:	46a9      	mov	r9, r5
 800031c:	46a0      	mov	r8, r4
 800031e:	bdf0      	pop	{r4, r5, r6, r7, pc}
 8000320:	4b92      	ldr	r3, [pc, #584]	@ (800056c <__aeabi_dmul+0x314>)
 8000322:	4326      	orrs	r6, r4
 8000324:	18eb      	adds	r3, r5, r3
 8000326:	2e00      	cmp	r6, #0
 8000328:	d100      	bne.n	800032c <__aeabi_dmul+0xd4>
 800032a:	e0bb      	b.n	80004a4 <__aeabi_dmul+0x24c>
 800032c:	2203      	movs	r2, #3
 800032e:	4641      	mov	r1, r8
 8000330:	4311      	orrs	r1, r2
 8000332:	465a      	mov	r2, fp
 8000334:	4688      	mov	r8, r1
 8000336:	9900      	ldr	r1, [sp, #0]
 8000338:	404a      	eors	r2, r1
 800033a:	2180      	movs	r1, #128	@ 0x80
 800033c:	0109      	lsls	r1, r1, #4
 800033e:	468c      	mov	ip, r1
 8000340:	0029      	movs	r1, r5
 8000342:	4461      	add	r1, ip
 8000344:	9101      	str	r1, [sp, #4]
 8000346:	4641      	mov	r1, r8
 8000348:	290a      	cmp	r1, #10
 800034a:	dd00      	ble.n	800034e <__aeabi_dmul+0xf6>
 800034c:	e233      	b.n	80007b6 <__aeabi_dmul+0x55e>
 800034e:	4693      	mov	fp, r2
 8000350:	2603      	movs	r6, #3
 8000352:	4642      	mov	r2, r8
 8000354:	2701      	movs	r7, #1
 8000356:	4097      	lsls	r7, r2
 8000358:	21a6      	movs	r1, #166	@ 0xa6
 800035a:	003a      	movs	r2, r7
 800035c:	00c9      	lsls	r1, r1, #3
 800035e:	400a      	ands	r2, r1
 8000360:	420f      	tst	r7, r1
 8000362:	d031      	beq.n	80003c8 <__aeabi_dmul+0x170>
 8000364:	9e02      	ldr	r6, [sp, #8]
 8000366:	2e02      	cmp	r6, #2
 8000368:	d100      	bne.n	800036c <__aeabi_dmul+0x114>
 800036a:	e235      	b.n	80007d8 <__aeabi_dmul+0x580>
 800036c:	2e03      	cmp	r6, #3
 800036e:	d100      	bne.n	8000372 <__aeabi_dmul+0x11a>
 8000370:	e1d2      	b.n	8000718 <__aeabi_dmul+0x4c0>
 8000372:	4654      	mov	r4, sl
 8000374:	4648      	mov	r0, r9
 8000376:	2e01      	cmp	r6, #1
 8000378:	d0c1      	beq.n	80002fe <__aeabi_dmul+0xa6>
 800037a:	9a01      	ldr	r2, [sp, #4]
 800037c:	4b7d      	ldr	r3, [pc, #500]	@ (8000574 <__aeabi_dmul+0x31c>)
 800037e:	4694      	mov	ip, r2
 8000380:	4463      	add	r3, ip
 8000382:	2b00      	cmp	r3, #0
 8000384:	dc00      	bgt.n	8000388 <__aeabi_dmul+0x130>
 8000386:	e0c0      	b.n	800050a <__aeabi_dmul+0x2b2>
 8000388:	0742      	lsls	r2, r0, #29
 800038a:	d009      	beq.n	80003a0 <__aeabi_dmul+0x148>
 800038c:	220f      	movs	r2, #15
 800038e:	4002      	ands	r2, r0
 8000390:	2a04      	cmp	r2, #4
 8000392:	d005      	beq.n	80003a0 <__aeabi_dmul+0x148>
 8000394:	1d02      	adds	r2, r0, #4
 8000396:	4282      	cmp	r2, r0
 8000398:	4180      	sbcs	r0, r0
 800039a:	4240      	negs	r0, r0
 800039c:	1824      	adds	r4, r4, r0
 800039e:	0010      	movs	r0, r2
 80003a0:	01e2      	lsls	r2, r4, #7
 80003a2:	d506      	bpl.n	80003b2 <__aeabi_dmul+0x15a>
 80003a4:	4b74      	ldr	r3, [pc, #464]	@ (8000578 <__aeabi_dmul+0x320>)
 80003a6:	9a01      	ldr	r2, [sp, #4]
 80003a8:	401c      	ands	r4, r3
 80003aa:	2380      	movs	r3, #128	@ 0x80
 80003ac:	4694      	mov	ip, r2
 80003ae:	00db      	lsls	r3, r3, #3
 80003b0:	4463      	add	r3, ip
 80003b2:	4a72      	ldr	r2, [pc, #456]	@ (800057c <__aeabi_dmul+0x324>)
 80003b4:	4293      	cmp	r3, r2
 80003b6:	dc6b      	bgt.n	8000490 <__aeabi_dmul+0x238>
 80003b8:	0762      	lsls	r2, r4, #29
 80003ba:	08c0      	lsrs	r0, r0, #3
 80003bc:	0264      	lsls	r4, r4, #9
 80003be:	055b      	lsls	r3, r3, #21
 80003c0:	4302      	orrs	r2, r0
 80003c2:	0b24      	lsrs	r4, r4, #12
 80003c4:	0d5b      	lsrs	r3, r3, #21
 80003c6:	e79d      	b.n	8000304 <__aeabi_dmul+0xac>
 80003c8:	2190      	movs	r1, #144	@ 0x90
 80003ca:	0089      	lsls	r1, r1, #2
 80003cc:	420f      	tst	r7, r1
 80003ce:	d163      	bne.n	8000498 <__aeabi_dmul+0x240>
 80003d0:	2288      	movs	r2, #136	@ 0x88
 80003d2:	423a      	tst	r2, r7
 80003d4:	d100      	bne.n	80003d8 <__aeabi_dmul+0x180>
 80003d6:	e0d7      	b.n	8000588 <__aeabi_dmul+0x330>
 80003d8:	9b00      	ldr	r3, [sp, #0]
 80003da:	46a2      	mov	sl, r4
 80003dc:	469b      	mov	fp, r3
 80003de:	4681      	mov	r9, r0
 80003e0:	9602      	str	r6, [sp, #8]
 80003e2:	e7bf      	b.n	8000364 <__aeabi_dmul+0x10c>
 80003e4:	0023      	movs	r3, r4
 80003e6:	4333      	orrs	r3, r6
 80003e8:	d100      	bne.n	80003ec <__aeabi_dmul+0x194>
 80003ea:	e07f      	b.n	80004ec <__aeabi_dmul+0x294>
 80003ec:	2c00      	cmp	r4, #0
 80003ee:	d100      	bne.n	80003f2 <__aeabi_dmul+0x19a>
 80003f0:	e1ad      	b.n	800074e <__aeabi_dmul+0x4f6>
 80003f2:	0020      	movs	r0, r4
 80003f4:	f000 fa62 	bl	80008bc <__clzsi2>
 80003f8:	0002      	movs	r2, r0
 80003fa:	0003      	movs	r3, r0
 80003fc:	3a0b      	subs	r2, #11
 80003fe:	201d      	movs	r0, #29
 8000400:	0019      	movs	r1, r3
 8000402:	1a82      	subs	r2, r0, r2
 8000404:	0030      	movs	r0, r6
 8000406:	3908      	subs	r1, #8
 8000408:	40d0      	lsrs	r0, r2
 800040a:	408c      	lsls	r4, r1
 800040c:	4304      	orrs	r4, r0
 800040e:	0030      	movs	r0, r6
 8000410:	4088      	lsls	r0, r1
 8000412:	4a5b      	ldr	r2, [pc, #364]	@ (8000580 <__aeabi_dmul+0x328>)
 8000414:	1aeb      	subs	r3, r5, r3
 8000416:	4694      	mov	ip, r2
 8000418:	4463      	add	r3, ip
 800041a:	1c5a      	adds	r2, r3, #1
 800041c:	9201      	str	r2, [sp, #4]
 800041e:	4642      	mov	r2, r8
 8000420:	2600      	movs	r6, #0
 8000422:	2a0a      	cmp	r2, #10
 8000424:	dc00      	bgt.n	8000428 <__aeabi_dmul+0x1d0>
 8000426:	e75a      	b.n	80002de <__aeabi_dmul+0x86>
 8000428:	e79c      	b.n	8000364 <__aeabi_dmul+0x10c>
 800042a:	4653      	mov	r3, sl
 800042c:	4303      	orrs	r3, r0
 800042e:	4699      	mov	r9, r3
 8000430:	d054      	beq.n	80004dc <__aeabi_dmul+0x284>
 8000432:	4653      	mov	r3, sl
 8000434:	2b00      	cmp	r3, #0
 8000436:	d100      	bne.n	800043a <__aeabi_dmul+0x1e2>
 8000438:	e177      	b.n	800072a <__aeabi_dmul+0x4d2>
 800043a:	4650      	mov	r0, sl
 800043c:	f000 fa3e 	bl	80008bc <__clzsi2>
 8000440:	230b      	movs	r3, #11
 8000442:	425b      	negs	r3, r3
 8000444:	469c      	mov	ip, r3
 8000446:	0002      	movs	r2, r0
 8000448:	4484      	add	ip, r0
 800044a:	0011      	movs	r1, r2
 800044c:	4650      	mov	r0, sl
 800044e:	3908      	subs	r1, #8
 8000450:	4088      	lsls	r0, r1
 8000452:	231d      	movs	r3, #29
 8000454:	4680      	mov	r8, r0
 8000456:	4660      	mov	r0, ip
 8000458:	1a1b      	subs	r3, r3, r0
 800045a:	0020      	movs	r0, r4
 800045c:	40d8      	lsrs	r0, r3
 800045e:	0003      	movs	r3, r0
 8000460:	4640      	mov	r0, r8
 8000462:	4303      	orrs	r3, r0
 8000464:	469a      	mov	sl, r3
 8000466:	0023      	movs	r3, r4
 8000468:	408b      	lsls	r3, r1
 800046a:	4699      	mov	r9, r3
 800046c:	2300      	movs	r3, #0
 800046e:	4d44      	ldr	r5, [pc, #272]	@ (8000580 <__aeabi_dmul+0x328>)
 8000470:	4698      	mov	r8, r3
 8000472:	1aad      	subs	r5, r5, r2
 8000474:	9302      	str	r3, [sp, #8]
 8000476:	e715      	b.n	80002a4 <__aeabi_dmul+0x4c>
 8000478:	4652      	mov	r2, sl
 800047a:	4302      	orrs	r2, r0
 800047c:	4691      	mov	r9, r2
 800047e:	d126      	bne.n	80004ce <__aeabi_dmul+0x276>
 8000480:	2200      	movs	r2, #0
 8000482:	001d      	movs	r5, r3
 8000484:	2302      	movs	r3, #2
 8000486:	4692      	mov	sl, r2
 8000488:	3208      	adds	r2, #8
 800048a:	4690      	mov	r8, r2
 800048c:	9302      	str	r3, [sp, #8]
 800048e:	e709      	b.n	80002a4 <__aeabi_dmul+0x4c>
 8000490:	2400      	movs	r4, #0
 8000492:	2200      	movs	r2, #0
 8000494:	4b35      	ldr	r3, [pc, #212]	@ (800056c <__aeabi_dmul+0x314>)
 8000496:	e735      	b.n	8000304 <__aeabi_dmul+0xac>
 8000498:	2300      	movs	r3, #0
 800049a:	2480      	movs	r4, #128	@ 0x80
 800049c:	469b      	mov	fp, r3
 800049e:	0324      	lsls	r4, r4, #12
 80004a0:	4b32      	ldr	r3, [pc, #200]	@ (800056c <__aeabi_dmul+0x314>)
 80004a2:	e72f      	b.n	8000304 <__aeabi_dmul+0xac>
 80004a4:	2202      	movs	r2, #2
 80004a6:	4641      	mov	r1, r8
 80004a8:	4311      	orrs	r1, r2
 80004aa:	2280      	movs	r2, #128	@ 0x80
 80004ac:	0112      	lsls	r2, r2, #4
 80004ae:	4694      	mov	ip, r2
 80004b0:	002a      	movs	r2, r5
 80004b2:	4462      	add	r2, ip
 80004b4:	4688      	mov	r8, r1
 80004b6:	9201      	str	r2, [sp, #4]
 80004b8:	290a      	cmp	r1, #10
 80004ba:	dd00      	ble.n	80004be <__aeabi_dmul+0x266>
 80004bc:	e752      	b.n	8000364 <__aeabi_dmul+0x10c>
 80004be:	465a      	mov	r2, fp
 80004c0:	2000      	movs	r0, #0
 80004c2:	9900      	ldr	r1, [sp, #0]
 80004c4:	0004      	movs	r4, r0
 80004c6:	404a      	eors	r2, r1
 80004c8:	4693      	mov	fp, r2
 80004ca:	2602      	movs	r6, #2
 80004cc:	e70b      	b.n	80002e6 <__aeabi_dmul+0x8e>
 80004ce:	220c      	movs	r2, #12
 80004d0:	001d      	movs	r5, r3
 80004d2:	2303      	movs	r3, #3
 80004d4:	4681      	mov	r9, r0
 80004d6:	4690      	mov	r8, r2
 80004d8:	9302      	str	r3, [sp, #8]
 80004da:	e6e3      	b.n	80002a4 <__aeabi_dmul+0x4c>
 80004dc:	2300      	movs	r3, #0
 80004de:	469a      	mov	sl, r3
 80004e0:	3304      	adds	r3, #4
 80004e2:	4698      	mov	r8, r3
 80004e4:	3b03      	subs	r3, #3
 80004e6:	2500      	movs	r5, #0
 80004e8:	9302      	str	r3, [sp, #8]
 80004ea:	e6db      	b.n	80002a4 <__aeabi_dmul+0x4c>
 80004ec:	4642      	mov	r2, r8
 80004ee:	3301      	adds	r3, #1
 80004f0:	431a      	orrs	r2, r3
 80004f2:	002b      	movs	r3, r5
 80004f4:	4690      	mov	r8, r2
 80004f6:	1c5a      	adds	r2, r3, #1
 80004f8:	9201      	str	r2, [sp, #4]
 80004fa:	4642      	mov	r2, r8
 80004fc:	2400      	movs	r4, #0
 80004fe:	2000      	movs	r0, #0
 8000500:	2601      	movs	r6, #1
 8000502:	2a0a      	cmp	r2, #10
 8000504:	dc00      	bgt.n	8000508 <__aeabi_dmul+0x2b0>
 8000506:	e6ea      	b.n	80002de <__aeabi_dmul+0x86>
 8000508:	e72c      	b.n	8000364 <__aeabi_dmul+0x10c>
 800050a:	2201      	movs	r2, #1
 800050c:	1ad2      	subs	r2, r2, r3
 800050e:	2a38      	cmp	r2, #56	@ 0x38
 8000510:	dd00      	ble.n	8000514 <__aeabi_dmul+0x2bc>
 8000512:	e6f4      	b.n	80002fe <__aeabi_dmul+0xa6>
 8000514:	2a1f      	cmp	r2, #31
 8000516:	dc00      	bgt.n	800051a <__aeabi_dmul+0x2c2>
 8000518:	e12a      	b.n	8000770 <__aeabi_dmul+0x518>
 800051a:	211f      	movs	r1, #31
 800051c:	4249      	negs	r1, r1
 800051e:	1acb      	subs	r3, r1, r3
 8000520:	0021      	movs	r1, r4
 8000522:	40d9      	lsrs	r1, r3
 8000524:	000b      	movs	r3, r1
 8000526:	2a20      	cmp	r2, #32
 8000528:	d005      	beq.n	8000536 <__aeabi_dmul+0x2de>
 800052a:	4a16      	ldr	r2, [pc, #88]	@ (8000584 <__aeabi_dmul+0x32c>)
 800052c:	9d01      	ldr	r5, [sp, #4]
 800052e:	4694      	mov	ip, r2
 8000530:	4465      	add	r5, ip
 8000532:	40ac      	lsls	r4, r5
 8000534:	4320      	orrs	r0, r4
 8000536:	1e42      	subs	r2, r0, #1
 8000538:	4190      	sbcs	r0, r2
 800053a:	4318      	orrs	r0, r3
 800053c:	2307      	movs	r3, #7
 800053e:	0019      	movs	r1, r3
 8000540:	2400      	movs	r4, #0
 8000542:	4001      	ands	r1, r0
 8000544:	4203      	tst	r3, r0
 8000546:	d00c      	beq.n	8000562 <__aeabi_dmul+0x30a>
 8000548:	230f      	movs	r3, #15
 800054a:	4003      	ands	r3, r0
 800054c:	2b04      	cmp	r3, #4
 800054e:	d100      	bne.n	8000552 <__aeabi_dmul+0x2fa>
 8000550:	e140      	b.n	80007d4 <__aeabi_dmul+0x57c>
 8000552:	1d03      	adds	r3, r0, #4
 8000554:	4283      	cmp	r3, r0
 8000556:	41a4      	sbcs	r4, r4
 8000558:	0018      	movs	r0, r3
 800055a:	4264      	negs	r4, r4
 800055c:	0761      	lsls	r1, r4, #29
 800055e:	0264      	lsls	r4, r4, #9
 8000560:	0b24      	lsrs	r4, r4, #12
 8000562:	08c2      	lsrs	r2, r0, #3
 8000564:	2300      	movs	r3, #0
 8000566:	430a      	orrs	r2, r1
 8000568:	e6cc      	b.n	8000304 <__aeabi_dmul+0xac>
 800056a:	46c0      	nop			@ (mov r8, r8)
 800056c:	000007ff 	.word	0x000007ff
 8000570:	fffffc01 	.word	0xfffffc01
 8000574:	000003ff 	.word	0x000003ff
 8000578:	feffffff 	.word	0xfeffffff
 800057c:	000007fe 	.word	0x000007fe
 8000580:	fffffc0d 	.word	0xfffffc0d
 8000584:	0000043e 	.word	0x0000043e
 8000588:	4649      	mov	r1, r9
 800058a:	464a      	mov	r2, r9
 800058c:	0409      	lsls	r1, r1, #16
 800058e:	0c09      	lsrs	r1, r1, #16
 8000590:	000d      	movs	r5, r1
 8000592:	0c16      	lsrs	r6, r2, #16
 8000594:	0c02      	lsrs	r2, r0, #16
 8000596:	0400      	lsls	r0, r0, #16
 8000598:	0c00      	lsrs	r0, r0, #16
 800059a:	4345      	muls	r5, r0
 800059c:	46ac      	mov	ip, r5
 800059e:	0005      	movs	r5, r0
 80005a0:	4375      	muls	r5, r6
 80005a2:	46a8      	mov	r8, r5
 80005a4:	0015      	movs	r5, r2
 80005a6:	000f      	movs	r7, r1
 80005a8:	4375      	muls	r5, r6
 80005aa:	9200      	str	r2, [sp, #0]
 80005ac:	9502      	str	r5, [sp, #8]
 80005ae:	002a      	movs	r2, r5
 80005b0:	9d00      	ldr	r5, [sp, #0]
 80005b2:	436f      	muls	r7, r5
 80005b4:	4665      	mov	r5, ip
 80005b6:	0c2d      	lsrs	r5, r5, #16
 80005b8:	46a9      	mov	r9, r5
 80005ba:	4447      	add	r7, r8
 80005bc:	444f      	add	r7, r9
 80005be:	45b8      	cmp	r8, r7
 80005c0:	d905      	bls.n	80005ce <__aeabi_dmul+0x376>
 80005c2:	0015      	movs	r5, r2
 80005c4:	2280      	movs	r2, #128	@ 0x80
 80005c6:	0252      	lsls	r2, r2, #9
 80005c8:	4690      	mov	r8, r2
 80005ca:	4445      	add	r5, r8
 80005cc:	9502      	str	r5, [sp, #8]
 80005ce:	0c3d      	lsrs	r5, r7, #16
 80005d0:	9503      	str	r5, [sp, #12]
 80005d2:	4665      	mov	r5, ip
 80005d4:	042d      	lsls	r5, r5, #16
 80005d6:	043f      	lsls	r7, r7, #16
 80005d8:	0c2d      	lsrs	r5, r5, #16
 80005da:	46ac      	mov	ip, r5
 80005dc:	003d      	movs	r5, r7
 80005de:	4465      	add	r5, ip
 80005e0:	9504      	str	r5, [sp, #16]
 80005e2:	0c25      	lsrs	r5, r4, #16
 80005e4:	0424      	lsls	r4, r4, #16
 80005e6:	0c24      	lsrs	r4, r4, #16
 80005e8:	46ac      	mov	ip, r5
 80005ea:	0025      	movs	r5, r4
 80005ec:	4375      	muls	r5, r6
 80005ee:	46a8      	mov	r8, r5
 80005f0:	4665      	mov	r5, ip
 80005f2:	000f      	movs	r7, r1
 80005f4:	4369      	muls	r1, r5
 80005f6:	4441      	add	r1, r8
 80005f8:	4689      	mov	r9, r1
 80005fa:	4367      	muls	r7, r4
 80005fc:	0c39      	lsrs	r1, r7, #16
 80005fe:	4449      	add	r1, r9
 8000600:	436e      	muls	r6, r5
 8000602:	4588      	cmp	r8, r1
 8000604:	d903      	bls.n	800060e <__aeabi_dmul+0x3b6>
 8000606:	2280      	movs	r2, #128	@ 0x80
 8000608:	0252      	lsls	r2, r2, #9
 800060a:	4690      	mov	r8, r2
 800060c:	4446      	add	r6, r8
 800060e:	0c0d      	lsrs	r5, r1, #16
 8000610:	46a8      	mov	r8, r5
 8000612:	0035      	movs	r5, r6
 8000614:	4445      	add	r5, r8
 8000616:	9505      	str	r5, [sp, #20]
 8000618:	9d03      	ldr	r5, [sp, #12]
 800061a:	043f      	lsls	r7, r7, #16
 800061c:	46a8      	mov	r8, r5
 800061e:	0c3f      	lsrs	r7, r7, #16
 8000620:	0409      	lsls	r1, r1, #16
 8000622:	19c9      	adds	r1, r1, r7
 8000624:	4488      	add	r8, r1
 8000626:	4645      	mov	r5, r8
 8000628:	9503      	str	r5, [sp, #12]
 800062a:	4655      	mov	r5, sl
 800062c:	042e      	lsls	r6, r5, #16
 800062e:	0c36      	lsrs	r6, r6, #16
 8000630:	0c2f      	lsrs	r7, r5, #16
 8000632:	0035      	movs	r5, r6
 8000634:	4345      	muls	r5, r0
 8000636:	4378      	muls	r0, r7
 8000638:	4681      	mov	r9, r0
 800063a:	0038      	movs	r0, r7
 800063c:	46a8      	mov	r8, r5
 800063e:	0c2d      	lsrs	r5, r5, #16
 8000640:	46aa      	mov	sl, r5
 8000642:	9a00      	ldr	r2, [sp, #0]
 8000644:	4350      	muls	r0, r2
 8000646:	4372      	muls	r2, r6
 8000648:	444a      	add	r2, r9
 800064a:	4452      	add	r2, sl
 800064c:	4591      	cmp	r9, r2
 800064e:	d903      	bls.n	8000658 <__aeabi_dmul+0x400>
 8000650:	2580      	movs	r5, #128	@ 0x80
 8000652:	026d      	lsls	r5, r5, #9
 8000654:	46a9      	mov	r9, r5
 8000656:	4448      	add	r0, r9
 8000658:	0c15      	lsrs	r5, r2, #16
 800065a:	46a9      	mov	r9, r5
 800065c:	4645      	mov	r5, r8
 800065e:	042d      	lsls	r5, r5, #16
 8000660:	0c2d      	lsrs	r5, r5, #16
 8000662:	46a8      	mov	r8, r5
 8000664:	4665      	mov	r5, ip
 8000666:	437d      	muls	r5, r7
 8000668:	0412      	lsls	r2, r2, #16
 800066a:	4448      	add	r0, r9
 800066c:	4490      	add	r8, r2
 800066e:	46a9      	mov	r9, r5
 8000670:	0032      	movs	r2, r6
 8000672:	4665      	mov	r5, ip
 8000674:	4362      	muls	r2, r4
 8000676:	436e      	muls	r6, r5
 8000678:	437c      	muls	r4, r7
 800067a:	0c17      	lsrs	r7, r2, #16
 800067c:	1936      	adds	r6, r6, r4
 800067e:	19bf      	adds	r7, r7, r6
 8000680:	42bc      	cmp	r4, r7
 8000682:	d903      	bls.n	800068c <__aeabi_dmul+0x434>
 8000684:	2480      	movs	r4, #128	@ 0x80
 8000686:	0264      	lsls	r4, r4, #9
 8000688:	46a4      	mov	ip, r4
 800068a:	44e1      	add	r9, ip
 800068c:	9c02      	ldr	r4, [sp, #8]
 800068e:	9e03      	ldr	r6, [sp, #12]
 8000690:	46a4      	mov	ip, r4
 8000692:	9d05      	ldr	r5, [sp, #20]
 8000694:	4466      	add	r6, ip
 8000696:	428e      	cmp	r6, r1
 8000698:	4189      	sbcs	r1, r1
 800069a:	46ac      	mov	ip, r5
 800069c:	0412      	lsls	r2, r2, #16
 800069e:	043c      	lsls	r4, r7, #16
 80006a0:	0c12      	lsrs	r2, r2, #16
 80006a2:	18a2      	adds	r2, r4, r2
 80006a4:	4462      	add	r2, ip
 80006a6:	4249      	negs	r1, r1
 80006a8:	1854      	adds	r4, r2, r1
 80006aa:	4446      	add	r6, r8
 80006ac:	46a4      	mov	ip, r4
 80006ae:	4546      	cmp	r6, r8
 80006b0:	41a4      	sbcs	r4, r4
 80006b2:	4682      	mov	sl, r0
 80006b4:	4264      	negs	r4, r4
 80006b6:	46a0      	mov	r8, r4
 80006b8:	42aa      	cmp	r2, r5
 80006ba:	4192      	sbcs	r2, r2
 80006bc:	458c      	cmp	ip, r1
 80006be:	4189      	sbcs	r1, r1
 80006c0:	44e2      	add	sl, ip
 80006c2:	44d0      	add	r8, sl
 80006c4:	4249      	negs	r1, r1
 80006c6:	4252      	negs	r2, r2
 80006c8:	430a      	orrs	r2, r1
 80006ca:	45a0      	cmp	r8, r4
 80006cc:	41a4      	sbcs	r4, r4
 80006ce:	4582      	cmp	sl, r0
 80006d0:	4189      	sbcs	r1, r1
 80006d2:	4264      	negs	r4, r4
 80006d4:	4249      	negs	r1, r1
 80006d6:	430c      	orrs	r4, r1
 80006d8:	4641      	mov	r1, r8
 80006da:	0c3f      	lsrs	r7, r7, #16
 80006dc:	19d2      	adds	r2, r2, r7
 80006de:	1912      	adds	r2, r2, r4
 80006e0:	0dcc      	lsrs	r4, r1, #23
 80006e2:	9904      	ldr	r1, [sp, #16]
 80006e4:	0270      	lsls	r0, r6, #9
 80006e6:	4308      	orrs	r0, r1
 80006e8:	1e41      	subs	r1, r0, #1
 80006ea:	4188      	sbcs	r0, r1
 80006ec:	4641      	mov	r1, r8
 80006ee:	444a      	add	r2, r9
 80006f0:	0df6      	lsrs	r6, r6, #23
 80006f2:	0252      	lsls	r2, r2, #9
 80006f4:	4330      	orrs	r0, r6
 80006f6:	0249      	lsls	r1, r1, #9
 80006f8:	4314      	orrs	r4, r2
 80006fa:	4308      	orrs	r0, r1
 80006fc:	01d2      	lsls	r2, r2, #7
 80006fe:	d535      	bpl.n	800076c <__aeabi_dmul+0x514>
 8000700:	2201      	movs	r2, #1
 8000702:	0843      	lsrs	r3, r0, #1
 8000704:	4002      	ands	r2, r0
 8000706:	4313      	orrs	r3, r2
 8000708:	07e0      	lsls	r0, r4, #31
 800070a:	4318      	orrs	r0, r3
 800070c:	0864      	lsrs	r4, r4, #1
 800070e:	e634      	b.n	800037a <__aeabi_dmul+0x122>
 8000710:	9b00      	ldr	r3, [sp, #0]
 8000712:	46a2      	mov	sl, r4
 8000714:	469b      	mov	fp, r3
 8000716:	4681      	mov	r9, r0
 8000718:	2480      	movs	r4, #128	@ 0x80
 800071a:	4653      	mov	r3, sl
 800071c:	0324      	lsls	r4, r4, #12
 800071e:	431c      	orrs	r4, r3
 8000720:	0324      	lsls	r4, r4, #12
 8000722:	464a      	mov	r2, r9
 8000724:	4b2e      	ldr	r3, [pc, #184]	@ (80007e0 <__aeabi_dmul+0x588>)
 8000726:	0b24      	lsrs	r4, r4, #12
 8000728:	e5ec      	b.n	8000304 <__aeabi_dmul+0xac>
 800072a:	f000 f8c7 	bl	80008bc <__clzsi2>
 800072e:	2315      	movs	r3, #21
 8000730:	469c      	mov	ip, r3
 8000732:	4484      	add	ip, r0
 8000734:	0002      	movs	r2, r0
 8000736:	4663      	mov	r3, ip
 8000738:	3220      	adds	r2, #32
 800073a:	2b1c      	cmp	r3, #28
 800073c:	dc00      	bgt.n	8000740 <__aeabi_dmul+0x4e8>
 800073e:	e684      	b.n	800044a <__aeabi_dmul+0x1f2>
 8000740:	2300      	movs	r3, #0
 8000742:	4699      	mov	r9, r3
 8000744:	0023      	movs	r3, r4
 8000746:	3808      	subs	r0, #8
 8000748:	4083      	lsls	r3, r0
 800074a:	469a      	mov	sl, r3
 800074c:	e68e      	b.n	800046c <__aeabi_dmul+0x214>
 800074e:	f000 f8b5 	bl	80008bc <__clzsi2>
 8000752:	0002      	movs	r2, r0
 8000754:	0003      	movs	r3, r0
 8000756:	3215      	adds	r2, #21
 8000758:	3320      	adds	r3, #32
 800075a:	2a1c      	cmp	r2, #28
 800075c:	dc00      	bgt.n	8000760 <__aeabi_dmul+0x508>
 800075e:	e64e      	b.n	80003fe <__aeabi_dmul+0x1a6>
 8000760:	0002      	movs	r2, r0
 8000762:	0034      	movs	r4, r6
 8000764:	3a08      	subs	r2, #8
 8000766:	2000      	movs	r0, #0
 8000768:	4094      	lsls	r4, r2
 800076a:	e652      	b.n	8000412 <__aeabi_dmul+0x1ba>
 800076c:	9301      	str	r3, [sp, #4]
 800076e:	e604      	b.n	800037a <__aeabi_dmul+0x122>
 8000770:	4b1c      	ldr	r3, [pc, #112]	@ (80007e4 <__aeabi_dmul+0x58c>)
 8000772:	0021      	movs	r1, r4
 8000774:	469c      	mov	ip, r3
 8000776:	0003      	movs	r3, r0
 8000778:	9d01      	ldr	r5, [sp, #4]
 800077a:	40d3      	lsrs	r3, r2
 800077c:	4465      	add	r5, ip
 800077e:	40a9      	lsls	r1, r5
 8000780:	4319      	orrs	r1, r3
 8000782:	0003      	movs	r3, r0
 8000784:	40ab      	lsls	r3, r5
 8000786:	1e58      	subs	r0, r3, #1
 8000788:	4183      	sbcs	r3, r0
 800078a:	4319      	orrs	r1, r3
 800078c:	0008      	movs	r0, r1
 800078e:	40d4      	lsrs	r4, r2
 8000790:	074b      	lsls	r3, r1, #29
 8000792:	d009      	beq.n	80007a8 <__aeabi_dmul+0x550>
 8000794:	230f      	movs	r3, #15
 8000796:	400b      	ands	r3, r1
 8000798:	2b04      	cmp	r3, #4
 800079a:	d005      	beq.n	80007a8 <__aeabi_dmul+0x550>
 800079c:	1d0b      	adds	r3, r1, #4
 800079e:	428b      	cmp	r3, r1
 80007a0:	4180      	sbcs	r0, r0
 80007a2:	4240      	negs	r0, r0
 80007a4:	1824      	adds	r4, r4, r0
 80007a6:	0018      	movs	r0, r3
 80007a8:	0223      	lsls	r3, r4, #8
 80007aa:	d400      	bmi.n	80007ae <__aeabi_dmul+0x556>
 80007ac:	e6d6      	b.n	800055c <__aeabi_dmul+0x304>
 80007ae:	2301      	movs	r3, #1
 80007b0:	2400      	movs	r4, #0
 80007b2:	2200      	movs	r2, #0
 80007b4:	e5a6      	b.n	8000304 <__aeabi_dmul+0xac>
 80007b6:	290f      	cmp	r1, #15
 80007b8:	d1aa      	bne.n	8000710 <__aeabi_dmul+0x4b8>
 80007ba:	2380      	movs	r3, #128	@ 0x80
 80007bc:	4652      	mov	r2, sl
 80007be:	031b      	lsls	r3, r3, #12
 80007c0:	421a      	tst	r2, r3
 80007c2:	d0a9      	beq.n	8000718 <__aeabi_dmul+0x4c0>
 80007c4:	421c      	tst	r4, r3
 80007c6:	d1a7      	bne.n	8000718 <__aeabi_dmul+0x4c0>
 80007c8:	431c      	orrs	r4, r3
 80007ca:	9b00      	ldr	r3, [sp, #0]
 80007cc:	0002      	movs	r2, r0
 80007ce:	469b      	mov	fp, r3
 80007d0:	4b03      	ldr	r3, [pc, #12]	@ (80007e0 <__aeabi_dmul+0x588>)
 80007d2:	e597      	b.n	8000304 <__aeabi_dmul+0xac>
 80007d4:	2400      	movs	r4, #0
 80007d6:	e6c1      	b.n	800055c <__aeabi_dmul+0x304>
 80007d8:	2400      	movs	r4, #0
 80007da:	4b01      	ldr	r3, [pc, #4]	@ (80007e0 <__aeabi_dmul+0x588>)
 80007dc:	0022      	movs	r2, r4
 80007de:	e591      	b.n	8000304 <__aeabi_dmul+0xac>
 80007e0:	000007ff 	.word	0x000007ff
 80007e4:	0000041e 	.word	0x0000041e

080007e8 <__aeabi_d2iz>:
 80007e8:	000b      	movs	r3, r1
 80007ea:	0002      	movs	r2, r0
 80007ec:	b570      	push	{r4, r5, r6, lr}
 80007ee:	4d16      	ldr	r5, [pc, #88]	@ (8000848 <__aeabi_d2iz+0x60>)
 80007f0:	030c      	lsls	r4, r1, #12
 80007f2:	b082      	sub	sp, #8
 80007f4:	0049      	lsls	r1, r1, #1
 80007f6:	2000      	movs	r0, #0
 80007f8:	9200      	str	r2, [sp, #0]
 80007fa:	9301      	str	r3, [sp, #4]
 80007fc:	0b24      	lsrs	r4, r4, #12
 80007fe:	0d49      	lsrs	r1, r1, #21
 8000800:	0fde      	lsrs	r6, r3, #31
 8000802:	42a9      	cmp	r1, r5
 8000804:	dd04      	ble.n	8000810 <__aeabi_d2iz+0x28>
 8000806:	4811      	ldr	r0, [pc, #68]	@ (800084c <__aeabi_d2iz+0x64>)
 8000808:	4281      	cmp	r1, r0
 800080a:	dd03      	ble.n	8000814 <__aeabi_d2iz+0x2c>
 800080c:	4b10      	ldr	r3, [pc, #64]	@ (8000850 <__aeabi_d2iz+0x68>)
 800080e:	18f0      	adds	r0, r6, r3
 8000810:	b002      	add	sp, #8
 8000812:	bd70      	pop	{r4, r5, r6, pc}
 8000814:	2080      	movs	r0, #128	@ 0x80
 8000816:	0340      	lsls	r0, r0, #13
 8000818:	4320      	orrs	r0, r4
 800081a:	4c0e      	ldr	r4, [pc, #56]	@ (8000854 <__aeabi_d2iz+0x6c>)
 800081c:	1a64      	subs	r4, r4, r1
 800081e:	2c1f      	cmp	r4, #31
 8000820:	dd08      	ble.n	8000834 <__aeabi_d2iz+0x4c>
 8000822:	4b0d      	ldr	r3, [pc, #52]	@ (8000858 <__aeabi_d2iz+0x70>)
 8000824:	1a5b      	subs	r3, r3, r1
 8000826:	40d8      	lsrs	r0, r3
 8000828:	0003      	movs	r3, r0
 800082a:	4258      	negs	r0, r3
 800082c:	2e00      	cmp	r6, #0
 800082e:	d1ef      	bne.n	8000810 <__aeabi_d2iz+0x28>
 8000830:	0018      	movs	r0, r3
 8000832:	e7ed      	b.n	8000810 <__aeabi_d2iz+0x28>
 8000834:	4b09      	ldr	r3, [pc, #36]	@ (800085c <__aeabi_d2iz+0x74>)
 8000836:	9a00      	ldr	r2, [sp, #0]
 8000838:	469c      	mov	ip, r3
 800083a:	0003      	movs	r3, r0
 800083c:	4461      	add	r1, ip
 800083e:	408b      	lsls	r3, r1
 8000840:	40e2      	lsrs	r2, r4
 8000842:	4313      	orrs	r3, r2
 8000844:	e7f1      	b.n	800082a <__aeabi_d2iz+0x42>
 8000846:	46c0      	nop			@ (mov r8, r8)
 8000848:	000003fe 	.word	0x000003fe
 800084c:	0000041d 	.word	0x0000041d
 8000850:	7fffffff 	.word	0x7fffffff
 8000854:	00000433 	.word	0x00000433
 8000858:	00000413 	.word	0x00000413
 800085c:	fffffbed 	.word	0xfffffbed

08000860 <__aeabi_i2d>:
 8000860:	b570      	push	{r4, r5, r6, lr}
 8000862:	2800      	cmp	r0, #0
 8000864:	d016      	beq.n	8000894 <__aeabi_i2d+0x34>
 8000866:	17c3      	asrs	r3, r0, #31
 8000868:	18c5      	adds	r5, r0, r3
 800086a:	405d      	eors	r5, r3
 800086c:	0fc4      	lsrs	r4, r0, #31
 800086e:	0028      	movs	r0, r5
 8000870:	f000 f824 	bl	80008bc <__clzsi2>
 8000874:	4b10      	ldr	r3, [pc, #64]	@ (80008b8 <__aeabi_i2d+0x58>)
 8000876:	1a1b      	subs	r3, r3, r0
 8000878:	055b      	lsls	r3, r3, #21
 800087a:	0d5b      	lsrs	r3, r3, #21
 800087c:	280a      	cmp	r0, #10
 800087e:	dc14      	bgt.n	80008aa <__aeabi_i2d+0x4a>
 8000880:	0002      	movs	r2, r0
 8000882:	002e      	movs	r6, r5
 8000884:	3215      	adds	r2, #21
 8000886:	4096      	lsls	r6, r2
 8000888:	220b      	movs	r2, #11
 800088a:	1a12      	subs	r2, r2, r0
 800088c:	40d5      	lsrs	r5, r2
 800088e:	032d      	lsls	r5, r5, #12
 8000890:	0b2d      	lsrs	r5, r5, #12
 8000892:	e003      	b.n	800089c <__aeabi_i2d+0x3c>
 8000894:	2400      	movs	r4, #0
 8000896:	2300      	movs	r3, #0
 8000898:	2500      	movs	r5, #0
 800089a:	2600      	movs	r6, #0
 800089c:	051b      	lsls	r3, r3, #20
 800089e:	432b      	orrs	r3, r5
 80008a0:	07e4      	lsls	r4, r4, #31
 80008a2:	4323      	orrs	r3, r4
 80008a4:	0030      	movs	r0, r6
 80008a6:	0019      	movs	r1, r3
 80008a8:	bd70      	pop	{r4, r5, r6, pc}
 80008aa:	380b      	subs	r0, #11
 80008ac:	4085      	lsls	r5, r0
 80008ae:	032d      	lsls	r5, r5, #12
 80008b0:	2600      	movs	r6, #0
 80008b2:	0b2d      	lsrs	r5, r5, #12
 80008b4:	e7f2      	b.n	800089c <__aeabi_i2d+0x3c>
 80008b6:	46c0      	nop			@ (mov r8, r8)
 80008b8:	0000041e 	.word	0x0000041e

080008bc <__clzsi2>:
 80008bc:	211c      	movs	r1, #28
 80008be:	2301      	movs	r3, #1
 80008c0:	041b      	lsls	r3, r3, #16
 80008c2:	4298      	cmp	r0, r3
 80008c4:	d301      	bcc.n	80008ca <__clzsi2+0xe>
 80008c6:	0c00      	lsrs	r0, r0, #16
 80008c8:	3910      	subs	r1, #16
 80008ca:	0a1b      	lsrs	r3, r3, #8
 80008cc:	4298      	cmp	r0, r3
 80008ce:	d301      	bcc.n	80008d4 <__clzsi2+0x18>
 80008d0:	0a00      	lsrs	r0, r0, #8
 80008d2:	3908      	subs	r1, #8
 80008d4:	091b      	lsrs	r3, r3, #4
 80008d6:	4298      	cmp	r0, r3
 80008d8:	d301      	bcc.n	80008de <__clzsi2+0x22>
 80008da:	0900      	lsrs	r0, r0, #4
 80008dc:	3904      	subs	r1, #4
 80008de:	a202      	add	r2, pc, #8	@ (adr r2, 80008e8 <__clzsi2+0x2c>)
 80008e0:	5c10      	ldrb	r0, [r2, r0]
 80008e2:	1840      	adds	r0, r0, r1
 80008e4:	4770      	bx	lr
 80008e6:	46c0      	nop			@ (mov r8, r8)
 80008e8:	02020304 	.word	0x02020304
 80008ec:	01010101 	.word	0x01010101
	...

080008f8 <button_init>:
 80008f8:	7183      	strb	r3, [r0, #6]
 80008fa:	2300      	movs	r3, #0
 80008fc:	71c3      	strb	r3, [r0, #7]
 80008fe:	6001      	str	r1, [r0, #0]
 8000900:	7203      	strb	r3, [r0, #8]
 8000902:	8082      	strh	r2, [r0, #4]
 8000904:	7243      	strb	r3, [r0, #9]
 8000906:	7283      	strb	r3, [r0, #10]
 8000908:	8183      	strh	r3, [r0, #12]
 800090a:	4770      	bx	lr

0800090c <button_event>:
 800090c:	7a82      	ldrb	r2, [r0, #10]
 800090e:	0003      	movs	r3, r0
 8000910:	b2d0      	uxtb	r0, r2
 8000912:	2a00      	cmp	r2, #0
 8000914:	d004      	beq.n	8000920 <button_event+0x14>
 8000916:	2200      	movs	r2, #0
 8000918:	7a58      	ldrb	r0, [r3, #9]
 800091a:	725a      	strb	r2, [r3, #9]
 800091c:	b2c0      	uxtb	r0, r0
 800091e:	729a      	strb	r2, [r3, #10]
 8000920:	4770      	bx	lr

08000922 <button_state>:
 8000922:	7a00      	ldrb	r0, [r0, #8]
 8000924:	b2c0      	uxtb	r0, r0
 8000926:	4770      	bx	lr

08000928 <button_scan>:
 8000928:	b510      	push	{r4, lr}
 800092a:	0004      	movs	r4, r0
 800092c:	8881      	ldrh	r1, [r0, #4]
 800092e:	6800      	ldr	r0, [r0, #0]
 8000930:	f001 ff2c 	bl	800278c <HAL_GPIO_ReadPin>
 8000934:	79a3      	ldrb	r3, [r4, #6]
 8000936:	2b64      	cmp	r3, #100	@ 0x64
 8000938:	d110      	bne.n	800095c <button_scan+0x34>
 800093a:	2800      	cmp	r0, #0
 800093c:	d010      	beq.n	8000960 <button_scan+0x38>
 800093e:	79e3      	ldrb	r3, [r4, #7]
 8000940:	b2da      	uxtb	r2, r3
 8000942:	2b00      	cmp	r3, #0
 8000944:	d121      	bne.n	800098a <button_scan+0x62>
 8000946:	81a2      	strh	r2, [r4, #12]
 8000948:	7a23      	ldrb	r3, [r4, #8]
 800094a:	2b00      	cmp	r3, #0
 800094c:	d010      	beq.n	8000970 <button_scan+0x48>
 800094e:	2301      	movs	r3, #1
 8000950:	72a3      	strb	r3, [r4, #10]
 8000952:	7a23      	ldrb	r3, [r4, #8]
 8000954:	b2db      	uxtb	r3, r3
 8000956:	7263      	strb	r3, [r4, #9]
 8000958:	7222      	strb	r2, [r4, #8]
 800095a:	e009      	b.n	8000970 <button_scan+0x48>
 800095c:	2800      	cmp	r0, #0
 800095e:	d0ee      	beq.n	800093e <button_scan+0x16>
 8000960:	79e3      	ldrb	r3, [r4, #7]
 8000962:	2b03      	cmp	r3, #3
 8000964:	d10c      	bne.n	8000980 <button_scan+0x58>
 8000966:	89a3      	ldrh	r3, [r4, #12]
 8000968:	2b32      	cmp	r3, #50	@ 0x32
 800096a:	d102      	bne.n	8000972 <button_scan+0x4a>
 800096c:	3b30      	subs	r3, #48	@ 0x30
 800096e:	7223      	strb	r3, [r4, #8]
 8000970:	bd10      	pop	{r4, pc}
 8000972:	2301      	movs	r3, #1
 8000974:	7223      	strb	r3, [r4, #8]
 8000976:	89a3      	ldrh	r3, [r4, #12]
 8000978:	3301      	adds	r3, #1
 800097a:	b29b      	uxth	r3, r3
 800097c:	81a3      	strh	r3, [r4, #12]
 800097e:	e7f7      	b.n	8000970 <button_scan+0x48>
 8000980:	79e3      	ldrb	r3, [r4, #7]
 8000982:	3301      	adds	r3, #1
 8000984:	b2db      	uxtb	r3, r3
 8000986:	71e3      	strb	r3, [r4, #7]
 8000988:	e7f2      	b.n	8000970 <button_scan+0x48>
 800098a:	79e3      	ldrb	r3, [r4, #7]
 800098c:	3b01      	subs	r3, #1
 800098e:	e7f9      	b.n	8000984 <button_scan+0x5c>

08000990 <encoder_init>:
 8000990:	2333      	movs	r3, #51	@ 0x33
 8000992:	7103      	strb	r3, [r0, #4]
 8000994:	2300      	movs	r3, #0
 8000996:	2201      	movs	r2, #1
 8000998:	7143      	strb	r3, [r0, #5]
 800099a:	60c3      	str	r3, [r0, #12]
 800099c:	6acb      	ldr	r3, [r1, #44]	@ 0x2c
 800099e:	6001      	str	r1, [r0, #0]
 80009a0:	3301      	adds	r3, #1
 80009a2:	085b      	lsrs	r3, r3, #1
 80009a4:	6083      	str	r3, [r0, #8]
 80009a6:	6883      	ldr	r3, [r0, #8]
 80009a8:	624b      	str	r3, [r1, #36]	@ 0x24
 80009aa:	690b      	ldr	r3, [r1, #16]
 80009ac:	4393      	bics	r3, r2
 80009ae:	610b      	str	r3, [r1, #16]
 80009b0:	4770      	bx	lr

080009b2 <get_encoder_delta>:
 80009b2:	0003      	movs	r3, r0
 80009b4:	7941      	ldrb	r1, [r0, #5]
 80009b6:	2000      	movs	r0, #0
 80009b8:	0002      	movs	r2, r0
 80009ba:	4281      	cmp	r1, r0
 80009bc:	d001      	beq.n	80009c2 <get_encoder_delta+0x10>
 80009be:	68d8      	ldr	r0, [r3, #12]
 80009c0:	715a      	strb	r2, [r3, #5]
 80009c2:	4770      	bx	lr

080009c4 <encoder_overflow_check>:
 80009c4:	2101      	movs	r1, #1
 80009c6:	6803      	ldr	r3, [r0, #0]
 80009c8:	2000      	movs	r0, #0
 80009ca:	691a      	ldr	r2, [r3, #16]
 80009cc:	420a      	tst	r2, r1
 80009ce:	d009      	beq.n	80009e4 <encoder_overflow_check+0x20>
 80009d0:	6a5a      	ldr	r2, [r3, #36]	@ 0x24
 80009d2:	6ad8      	ldr	r0, [r3, #44]	@ 0x2c
 80009d4:	40c8      	lsrs	r0, r1
 80009d6:	4290      	cmp	r0, r2
 80009d8:	4180      	sbcs	r0, r0
 80009da:	691a      	ldr	r2, [r3, #16]
 80009dc:	4240      	negs	r0, r0
 80009de:	438a      	bics	r2, r1
 80009e0:	3035      	adds	r0, #53	@ 0x35
 80009e2:	611a      	str	r2, [r3, #16]
 80009e4:	4770      	bx	lr

080009e6 <encoder_event>:
 80009e6:	6803      	ldr	r3, [r0, #0]
 80009e8:	b570      	push	{r4, r5, r6, lr}
 80009ea:	6a5d      	ldr	r5, [r3, #36]	@ 0x24
 80009ec:	6883      	ldr	r3, [r0, #8]
 80009ee:	0004      	movs	r4, r0
 80009f0:	42ab      	cmp	r3, r5
 80009f2:	d016      	beq.n	8000a22 <encoder_event+0x3c>
 80009f4:	f7ff ffe6 	bl	80009c4 <encoder_overflow_check>
 80009f8:	2835      	cmp	r0, #53	@ 0x35
 80009fa:	d10a      	bne.n	8000a12 <encoder_event+0x2c>
 80009fc:	2332      	movs	r3, #50	@ 0x32
 80009fe:	7123      	strb	r3, [r4, #4]
 8000a00:	68a3      	ldr	r3, [r4, #8]
 8000a02:	1aeb      	subs	r3, r5, r3
 8000a04:	60e3      	str	r3, [r4, #12]
 8000a06:	2301      	movs	r3, #1
 8000a08:	60a5      	str	r5, [r4, #8]
 8000a0a:	7163      	strb	r3, [r4, #5]
 8000a0c:	7920      	ldrb	r0, [r4, #4]
 8000a0e:	b2c0      	uxtb	r0, r0
 8000a10:	bd70      	pop	{r4, r5, r6, pc}
 8000a12:	2836      	cmp	r0, #54	@ 0x36
 8000a14:	d101      	bne.n	8000a1a <encoder_event+0x34>
 8000a16:	2334      	movs	r3, #52	@ 0x34
 8000a18:	e7f1      	b.n	80009fe <encoder_event+0x18>
 8000a1a:	68a3      	ldr	r3, [r4, #8]
 8000a1c:	42ab      	cmp	r3, r5
 8000a1e:	d2fa      	bcs.n	8000a16 <encoder_event+0x30>
 8000a20:	e7ec      	b.n	80009fc <encoder_event+0x16>
 8000a22:	2333      	movs	r3, #51	@ 0x33
 8000a24:	7103      	strb	r3, [r0, #4]
 8000a26:	e7f1      	b.n	8000a0c <encoder_event+0x26>

08000a28 <write_string>:
 8000a28:	b084      	sub	sp, #16
 8000a2a:	b510      	push	{r4, lr}
 8000a2c:	0a04      	lsrs	r4, r0, #8
 8000a2e:	9002      	str	r0, [sp, #8]
 8000a30:	9103      	str	r1, [sp, #12]
 8000a32:	b2c0      	uxtb	r0, r0
 8000a34:	b2e1      	uxtb	r1, r4
 8000a36:	9305      	str	r3, [sp, #20]
 8000a38:	9204      	str	r2, [sp, #16]
 8000a3a:	f000 fdcf 	bl	80015dc <ssd1306_SetCursor>
 8000a3e:	2011      	movs	r0, #17
 8000a40:	4468      	add	r0, sp
 8000a42:	f7ff fb61 	bl	8000108 <strlen>
 8000a46:	ab02      	add	r3, sp, #8
 8000a48:	7fdb      	ldrb	r3, [r3, #31]
 8000a4a:	b2c4      	uxtb	r4, r0
 8000a4c:	4298      	cmp	r0, r3
 8000a4e:	d30d      	bcc.n	8000a6c <write_string+0x44>
 8000a50:	d910      	bls.n	8000a74 <write_string+0x4c>
 8000a52:	2208      	movs	r2, #8
 8000a54:	189b      	adds	r3, r3, r2
 8000a56:	2200      	movs	r2, #0
 8000a58:	446b      	add	r3, sp
 8000a5a:	725a      	strb	r2, [r3, #9]
 8000a5c:	e00a      	b.n	8000a74 <write_string+0x4c>
 8000a5e:	2011      	movs	r0, #17
 8000a60:	490c      	ldr	r1, [pc, #48]	@ (8000a94 <write_string+0x6c>)
 8000a62:	4468      	add	r0, sp
 8000a64:	f003 f93e 	bl	8003ce4 <strcat>
 8000a68:	3401      	adds	r4, #1
 8000a6a:	b2e4      	uxtb	r4, r4
 8000a6c:	ab02      	add	r3, sp, #8
 8000a6e:	7fdb      	ldrb	r3, [r3, #31]
 8000a70:	42a3      	cmp	r3, r4
 8000a72:	d8f4      	bhi.n	8000a5e <write_string+0x36>
 8000a74:	ac02      	add	r4, sp, #8
 8000a76:	7861      	ldrb	r1, [r4, #1]
 8000a78:	7820      	ldrb	r0, [r4, #0]
 8000a7a:	f000 fdaf 	bl	80015dc <ssd1306_SetCursor>
 8000a7e:	2011      	movs	r0, #17
 8000a80:	9a03      	ldr	r2, [sp, #12]
 8000a82:	7a23      	ldrb	r3, [r4, #8]
 8000a84:	4468      	add	r0, sp
 8000a86:	ca06      	ldmia	r2, {r1, r2}
 8000a88:	f000 fd94 	bl	80015b4 <ssd1306_WriteString>
 8000a8c:	bc10      	pop	{r4}
 8000a8e:	bc08      	pop	{r3}
 8000a90:	b004      	add	sp, #16
 8000a92:	4718      	bx	r3
 8000a94:	080061f6 	.word	0x080061f6

08000a98 <init_display>:
 8000a98:	b5f0      	push	{r4, r5, r6, r7, lr}
 8000a9a:	b08b      	sub	sp, #44	@ 0x2c
 8000a9c:	0004      	movs	r4, r0
 8000a9e:	f000 fe3b 	bl	8001718 <ssd1306_Init>
 8000aa2:	20ff      	movs	r0, #255	@ 0xff
 8000aa4:	f000 fe21 	bl	80016ea <ssd1306_SetContrast>
 8000aa8:	2000      	movs	r0, #0
 8000aaa:	f000 fce5 	bl	8001478 <ssd1306_Fill>
 8000aae:	2102      	movs	r1, #2
 8000ab0:	2301      	movs	r3, #1
 8000ab2:	466d      	mov	r5, sp
 8000ab4:	0008      	movs	r0, r1
 8000ab6:	9300      	str	r3, [sp, #0]
 8000ab8:	227d      	movs	r2, #125	@ 0x7d
 8000aba:	331d      	adds	r3, #29
 8000abc:	f000 fddc 	bl	8001678 <ssd1306_DrawRectangle>
 8000ac0:	4a17      	ldr	r2, [pc, #92]	@ (8000b20 <init_display+0x88>)
 8000ac2:	4b18      	ldr	r3, [pc, #96]	@ (8000b24 <init_display+0x8c>)
 8000ac4:	ca43      	ldmia	r2!, {r0, r1, r6}
 8000ac6:	c543      	stmia	r5!, {r0, r1, r6}
 8000ac8:	6812      	ldr	r2, [r2, #0]
 8000aca:	602a      	str	r2, [r5, #0]
 8000acc:	cb0f      	ldmia	r3, {r0, r1, r2, r3}
 8000ace:	f7ff ffab 	bl	8000a28 <write_string>
 8000ad2:	f001 f897 	bl	8001c04 <read_pcb_temperature>
 8000ad6:	4a14      	ldr	r2, [pc, #80]	@ (8000b28 <init_display+0x90>)
 8000ad8:	0003      	movs	r3, r0
 8000ada:	2116      	movs	r1, #22
 8000adc:	a804      	add	r0, sp, #16
 8000ade:	f003 f8c5 	bl	8003c6c <sniprintf>
 8000ae2:	a904      	add	r1, sp, #16
 8000ae4:	4811      	ldr	r0, [pc, #68]	@ (8000b2c <init_display+0x94>)
 8000ae6:	f003 f8fd 	bl	8003ce4 <strcat>
 8000aea:	4669      	mov	r1, sp
 8000aec:	4a10      	ldr	r2, [pc, #64]	@ (8000b30 <init_display+0x98>)
 8000aee:	4b11      	ldr	r3, [pc, #68]	@ (8000b34 <init_display+0x9c>)
 8000af0:	cac1      	ldmia	r2!, {r0, r6, r7}
 8000af2:	c1c1      	stmia	r1!, {r0, r6, r7}
 8000af4:	6812      	ldr	r2, [r2, #0]
 8000af6:	602a      	str	r2, [r5, #0]
 8000af8:	cb0f      	ldmia	r3, {r0, r1, r2, r3}
 8000afa:	f7ff ff95 	bl	8000a28 <write_string>
 8000afe:	4669      	mov	r1, sp
 8000b00:	4a0d      	ldr	r2, [pc, #52]	@ (8000b38 <init_display+0xa0>)
 8000b02:	4b0e      	ldr	r3, [pc, #56]	@ (8000b3c <init_display+0xa4>)
 8000b04:	cac1      	ldmia	r2!, {r0, r6, r7}
 8000b06:	c1c1      	stmia	r1!, {r0, r6, r7}
 8000b08:	6812      	ldr	r2, [r2, #0]
 8000b0a:	602a      	str	r2, [r5, #0]
 8000b0c:	cb0f      	ldmia	r3, {r0, r1, r2, r3}
 8000b0e:	f7ff ff8b 	bl	8000a28 <write_string>
 8000b12:	f000 fcbf 	bl	8001494 <ssd1306_UpdateScreen>
 8000b16:	0020      	movs	r0, r4
 8000b18:	f001 f9fc 	bl	8001f14 <HAL_Delay>
 8000b1c:	b00b      	add	sp, #44	@ 0x2c
 8000b1e:	bdf0      	pop	{r4, r5, r6, r7, pc}
 8000b20:	080046f8 	.word	0x080046f8
 8000b24:	080046e8 	.word	0x080046e8
 8000b28:	08004604 	.word	0x08004604
 8000b2c:	20000089 	.word	0x20000089
 8000b30:	080046d8 	.word	0x080046d8
 8000b34:	080046c8 	.word	0x080046c8
 8000b38:	20000090 	.word	0x20000090
 8000b3c:	20000080 	.word	0x20000080

08000b40 <draw_default_display>:
 8000b40:	b57f      	push	{r0, r1, r2, r3, r4, r5, r6, lr}
 8000b42:	2000      	movs	r0, #0
 8000b44:	f000 fc98 	bl	8001478 <ssd1306_Fill>
 8000b48:	2401      	movs	r4, #1
 8000b4a:	2102      	movs	r1, #2
 8000b4c:	9400      	str	r4, [sp, #0]
 8000b4e:	0008      	movs	r0, r1
 8000b50:	232d      	movs	r3, #45	@ 0x2d
 8000b52:	223e      	movs	r2, #62	@ 0x3e
 8000b54:	f000 fd90 	bl	8001678 <ssd1306_DrawRectangle>
 8000b58:	9400      	str	r4, [sp, #0]
 8000b5a:	232d      	movs	r3, #45	@ 0x2d
 8000b5c:	227d      	movs	r2, #125	@ 0x7d
 8000b5e:	2102      	movs	r1, #2
 8000b60:	2041      	movs	r0, #65	@ 0x41
 8000b62:	f000 fd89 	bl	8001678 <ssd1306_DrawRectangle>
 8000b66:	9400      	str	r4, [sp, #0]
 8000b68:	466c      	mov	r4, sp
 8000b6a:	2130      	movs	r1, #48	@ 0x30
 8000b6c:	2002      	movs	r0, #2
 8000b6e:	233d      	movs	r3, #61	@ 0x3d
 8000b70:	227d      	movs	r2, #125	@ 0x7d
 8000b72:	f000 fd81 	bl	8001678 <ssd1306_DrawRectangle>
 8000b76:	4a15      	ldr	r2, [pc, #84]	@ (8000bcc <draw_default_display+0x8c>)
 8000b78:	4b15      	ldr	r3, [pc, #84]	@ (8000bd0 <draw_default_display+0x90>)
 8000b7a:	ca23      	ldmia	r2!, {r0, r1, r5}
 8000b7c:	c423      	stmia	r4!, {r0, r1, r5}
 8000b7e:	6812      	ldr	r2, [r2, #0]
 8000b80:	6022      	str	r2, [r4, #0]
 8000b82:	cb0f      	ldmia	r3, {r0, r1, r2, r3}
 8000b84:	f7ff ff50 	bl	8000a28 <write_string>
 8000b88:	4669      	mov	r1, sp
 8000b8a:	4a12      	ldr	r2, [pc, #72]	@ (8000bd4 <draw_default_display+0x94>)
 8000b8c:	4b12      	ldr	r3, [pc, #72]	@ (8000bd8 <draw_default_display+0x98>)
 8000b8e:	ca61      	ldmia	r2!, {r0, r5, r6}
 8000b90:	c161      	stmia	r1!, {r0, r5, r6}
 8000b92:	6812      	ldr	r2, [r2, #0]
 8000b94:	6022      	str	r2, [r4, #0]
 8000b96:	cb0f      	ldmia	r3, {r0, r1, r2, r3}
 8000b98:	f7ff ff46 	bl	8000a28 <write_string>
 8000b9c:	4669      	mov	r1, sp
 8000b9e:	4a0f      	ldr	r2, [pc, #60]	@ (8000bdc <draw_default_display+0x9c>)
 8000ba0:	4b0f      	ldr	r3, [pc, #60]	@ (8000be0 <draw_default_display+0xa0>)
 8000ba2:	ca61      	ldmia	r2!, {r0, r5, r6}
 8000ba4:	c161      	stmia	r1!, {r0, r5, r6}
 8000ba6:	6812      	ldr	r2, [r2, #0]
 8000ba8:	6022      	str	r2, [r4, #0]
 8000baa:	cb0f      	ldmia	r3, {r0, r1, r2, r3}
 8000bac:	f7ff ff3c 	bl	8000a28 <write_string>
 8000bb0:	4669      	mov	r1, sp
 8000bb2:	4a0c      	ldr	r2, [pc, #48]	@ (8000be4 <draw_default_display+0xa4>)
 8000bb4:	4b0c      	ldr	r3, [pc, #48]	@ (8000be8 <draw_default_display+0xa8>)
 8000bb6:	ca61      	ldmia	r2!, {r0, r5, r6}
 8000bb8:	c161      	stmia	r1!, {r0, r5, r6}
 8000bba:	6812      	ldr	r2, [r2, #0]
 8000bbc:	6022      	str	r2, [r4, #0]
 8000bbe:	cb0f      	ldmia	r3, {r0, r1, r2, r3}
 8000bc0:	f7ff ff32 	bl	8000a28 <write_string>
 8000bc4:	f000 fc66 	bl	8001494 <ssd1306_UpdateScreen>
 8000bc8:	bd7f      	pop	{r0, r1, r2, r3, r4, r5, r6, pc}
 8000bca:	46c0      	nop			@ (mov r8, r8)
 8000bcc:	080046b8 	.word	0x080046b8
 8000bd0:	080046a8 	.word	0x080046a8
 8000bd4:	20000070 	.word	0x20000070
 8000bd8:	20000060 	.word	0x20000060
 8000bdc:	08004698 	.word	0x08004698
 8000be0:	08004688 	.word	0x08004688
 8000be4:	20000050 	.word	0x20000050
 8000be8:	20000040 	.word	0x20000040

08000bec <update_display>:
 8000bec:	b5f0      	push	{r4, r5, r6, r7, lr}
 8000bee:	4c44      	ldr	r4, [pc, #272]	@ (8000d00 <update_display+0x114>)
 8000bf0:	b085      	sub	sp, #20
 8000bf2:	7fe7      	ldrb	r7, [r4, #31]
 8000bf4:	f001 f83a 	bl	8001c6c <get_set_temp>
 8000bf8:	4e42      	ldr	r6, [pc, #264]	@ (8000d04 <update_display+0x118>)
 8000bfa:	4d43      	ldr	r5, [pc, #268]	@ (8000d08 <update_display+0x11c>)
 8000bfc:	3701      	adds	r7, #1
 8000bfe:	0003      	movs	r3, r0
 8000c00:	0039      	movs	r1, r7
 8000c02:	0030      	movs	r0, r6
 8000c04:	002a      	movs	r2, r5
 8000c06:	f003 f831 	bl	8003c6c <sniprintf>
 8000c0a:	0023      	movs	r3, r4
 8000c0c:	466a      	mov	r2, sp
 8000c0e:	3310      	adds	r3, #16
 8000c10:	cb43      	ldmia	r3!, {r0, r1, r6}
 8000c12:	c243      	stmia	r2!, {r0, r1, r6}
 8000c14:	681b      	ldr	r3, [r3, #0]
 8000c16:	6013      	str	r3, [r2, #0]
 8000c18:	cc0f      	ldmia	r4!, {r0, r1, r2, r3}
 8000c1a:	f7ff ff05 	bl	8000a28 <write_string>
 8000c1e:	f001 f973 	bl	8001f08 <HAL_GetTick>
 8000c22:	4e3a      	ldr	r6, [pc, #232]	@ (8000d0c <update_display+0x120>)
 8000c24:	4c3a      	ldr	r4, [pc, #232]	@ (8000d10 <update_display+0x124>)
 8000c26:	6833      	ldr	r3, [r6, #0]
 8000c28:	4298      	cmp	r0, r3
 8000c2a:	d93e      	bls.n	8000caa <update_display+0xbe>
 8000c2c:	f001 f96c 	bl	8001f08 <HAL_GetTick>
 8000c30:	30f5      	adds	r0, #245	@ 0xf5
 8000c32:	30ff      	adds	r0, #255	@ 0xff
 8000c34:	6030      	str	r0, [r6, #0]
 8000c36:	f001 f81f 	bl	8001c78 <get_tip_temp>
 8000c3a:	8020      	strh	r0, [r4, #0]
 8000c3c:	4c35      	ldr	r4, [pc, #212]	@ (8000d14 <update_display+0x128>)
 8000c3e:	7fe7      	ldrb	r7, [r4, #31]
 8000c40:	f001 f81a 	bl	8001c78 <get_tip_temp>
 8000c44:	4e34      	ldr	r6, [pc, #208]	@ (8000d18 <update_display+0x12c>)
 8000c46:	3701      	adds	r7, #1
 8000c48:	0003      	movs	r3, r0
 8000c4a:	002a      	movs	r2, r5
 8000c4c:	0039      	movs	r1, r7
 8000c4e:	0030      	movs	r0, r6
 8000c50:	f003 f80c 	bl	8003c6c <sniprintf>
 8000c54:	0023      	movs	r3, r4
 8000c56:	466a      	mov	r2, sp
 8000c58:	3310      	adds	r3, #16
 8000c5a:	cb23      	ldmia	r3!, {r0, r1, r5}
 8000c5c:	c223      	stmia	r2!, {r0, r1, r5}
 8000c5e:	681b      	ldr	r3, [r3, #0]
 8000c60:	6013      	str	r3, [r2, #0]
 8000c62:	cc0f      	ldmia	r4!, {r0, r1, r2, r3}
 8000c64:	f7ff fee0 	bl	8000a28 <write_string>
 8000c68:	2300      	movs	r3, #0
 8000c6a:	227c      	movs	r2, #124	@ 0x7c
 8000c6c:	2131      	movs	r1, #49	@ 0x31
 8000c6e:	2003      	movs	r0, #3
 8000c70:	9300      	str	r3, [sp, #0]
 8000c72:	333c      	adds	r3, #60	@ 0x3c
 8000c74:	f000 fd23 	bl	80016be <ssd1306_DrawFilledRectangle>
 8000c78:	f001 f8d6 	bl	8001e28 <get_power_bar_value>
 8000c7c:	227a      	movs	r2, #122	@ 0x7a
 8000c7e:	2301      	movs	r3, #1
 8000c80:	4342      	muls	r2, r0
 8000c82:	1092      	asrs	r2, r2, #2
 8000c84:	3202      	adds	r2, #2
 8000c86:	9300      	str	r3, [sp, #0]
 8000c88:	2131      	movs	r1, #49	@ 0x31
 8000c8a:	2002      	movs	r0, #2
 8000c8c:	b2d2      	uxtb	r2, r2
 8000c8e:	333b      	adds	r3, #59	@ 0x3b
 8000c90:	f000 fd15 	bl	80016be <ssd1306_DrawFilledRectangle>
 8000c94:	f000 fb90 	bl	80013b8 <get_system_state>
 8000c98:	4c20      	ldr	r4, [pc, #128]	@ (8000d1c <update_display+0x130>)
 8000c9a:	2805      	cmp	r0, #5
 8000c9c:	d818      	bhi.n	8000cd0 <update_display+0xe4>
 8000c9e:	4b20      	ldr	r3, [pc, #128]	@ (8000d20 <update_display+0x134>)
 8000ca0:	f7ff fa3a 	bl	8000118 <__gnu_thumb1_case_uqi>
 8000ca4:	28262410 	.word	0x28262410
 8000ca8:	2c2a      	.short	0x2c2a
 8000caa:	f000 ffe5 	bl	8001c78 <get_tip_temp>
 8000cae:	8823      	ldrh	r3, [r4, #0]
 8000cb0:	3b01      	subs	r3, #1
 8000cb2:	4298      	cmp	r0, r3
 8000cb4:	dbba      	blt.n	8000c2c <update_display+0x40>
 8000cb6:	f000 ffdf 	bl	8001c78 <get_tip_temp>
 8000cba:	8823      	ldrh	r3, [r4, #0]
 8000cbc:	3301      	adds	r3, #1
 8000cbe:	4298      	cmp	r0, r3
 8000cc0:	dcb4      	bgt.n	8000c2c <update_display+0x40>
 8000cc2:	e7e7      	b.n	8000c94 <update_display+0xa8>
 8000cc4:	4a17      	ldr	r2, [pc, #92]	@ (8000d24 <update_display+0x138>)
 8000cc6:	7fe1      	ldrb	r1, [r4, #31]
 8000cc8:	0018      	movs	r0, r3
 8000cca:	3101      	adds	r1, #1
 8000ccc:	f002 ffce 	bl	8003c6c <sniprintf>
 8000cd0:	0023      	movs	r3, r4
 8000cd2:	466a      	mov	r2, sp
 8000cd4:	3310      	adds	r3, #16
 8000cd6:	cb23      	ldmia	r3!, {r0, r1, r5}
 8000cd8:	c223      	stmia	r2!, {r0, r1, r5}
 8000cda:	681b      	ldr	r3, [r3, #0]
 8000cdc:	6013      	str	r3, [r2, #0]
 8000cde:	cc0f      	ldmia	r4!, {r0, r1, r2, r3}
 8000ce0:	f7ff fea2 	bl	8000a28 <write_string>
 8000ce4:	f000 fbd6 	bl	8001494 <ssd1306_UpdateScreen>
 8000ce8:	b005      	add	sp, #20
 8000cea:	bdf0      	pop	{r4, r5, r6, r7, pc}
 8000cec:	4a0e      	ldr	r2, [pc, #56]	@ (8000d28 <update_display+0x13c>)
 8000cee:	e7ea      	b.n	8000cc6 <update_display+0xda>
 8000cf0:	4a0e      	ldr	r2, [pc, #56]	@ (8000d2c <update_display+0x140>)
 8000cf2:	e7e8      	b.n	8000cc6 <update_display+0xda>
 8000cf4:	4a0e      	ldr	r2, [pc, #56]	@ (8000d30 <update_display+0x144>)
 8000cf6:	e7e6      	b.n	8000cc6 <update_display+0xda>
 8000cf8:	4a0e      	ldr	r2, [pc, #56]	@ (8000d34 <update_display+0x148>)
 8000cfa:	e7e4      	b.n	8000cc6 <update_display+0xda>
 8000cfc:	4a0e      	ldr	r2, [pc, #56]	@ (8000d38 <update_display+0x14c>)
 8000cfe:	e7e2      	b.n	8000cc6 <update_display+0xda>
 8000d00:	20000060 	.word	0x20000060
 8000d04:	20000069 	.word	0x20000069
 8000d08:	08004604 	.word	0x08004604
 8000d0c:	20000138 	.word	0x20000138
 8000d10:	20000134 	.word	0x20000134
 8000d14:	20000040 	.word	0x20000040
 8000d18:	20000049 	.word	0x20000049
 8000d1c:	20000020 	.word	0x20000020
 8000d20:	20000029 	.word	0x20000029
 8000d24:	08004609 	.word	0x08004609
 8000d28:	08004611 	.word	0x08004611
 8000d2c:	0800461c 	.word	0x0800461c
 8000d30:	08004626 	.word	0x08004626
 8000d34:	0800462f 	.word	0x0800462f
 8000d38:	08004637 	.word	0x08004637

08000d3c <display_message>:
 8000d3c:	b530      	push	{r4, r5, lr}
 8000d3e:	4c18      	ldr	r4, [pc, #96]	@ (8000da0 <display_message+0x64>)
 8000d40:	3804      	subs	r0, #4
 8000d42:	7fe1      	ldrb	r1, [r4, #31]
 8000d44:	4b17      	ldr	r3, [pc, #92]	@ (8000da4 <display_message+0x68>)
 8000d46:	4a18      	ldr	r2, [pc, #96]	@ (8000da8 <display_message+0x6c>)
 8000d48:	b085      	sub	sp, #20
 8000d4a:	3101      	adds	r1, #1
 8000d4c:	2803      	cmp	r0, #3
 8000d4e:	d804      	bhi.n	8000d5a <display_message+0x1e>
 8000d50:	f7ff f9e2 	bl	8000118 <__gnu_thumb1_case_uqi>
 8000d54:	23211f02 	.word	0x23211f02
 8000d58:	4a14      	ldr	r2, [pc, #80]	@ (8000dac <display_message+0x70>)
 8000d5a:	0018      	movs	r0, r3
 8000d5c:	f002 ff86 	bl	8003c6c <sniprintf>
 8000d60:	2000      	movs	r0, #0
 8000d62:	f000 fb89 	bl	8001478 <ssd1306_Fill>
 8000d66:	2301      	movs	r3, #1
 8000d68:	2115      	movs	r1, #21
 8000d6a:	2005      	movs	r0, #5
 8000d6c:	9300      	str	r3, [sp, #0]
 8000d6e:	227a      	movs	r2, #122	@ 0x7a
 8000d70:	3329      	adds	r3, #41	@ 0x29
 8000d72:	f000 fc81 	bl	8001678 <ssd1306_DrawRectangle>
 8000d76:	0023      	movs	r3, r4
 8000d78:	466a      	mov	r2, sp
 8000d7a:	3310      	adds	r3, #16
 8000d7c:	cb23      	ldmia	r3!, {r0, r1, r5}
 8000d7e:	c223      	stmia	r2!, {r0, r1, r5}
 8000d80:	681b      	ldr	r3, [r3, #0]
 8000d82:	6013      	str	r3, [r2, #0]
 8000d84:	cc0f      	ldmia	r4!, {r0, r1, r2, r3}
 8000d86:	f7ff fe4f 	bl	8000a28 <write_string>
 8000d8a:	f000 fb83 	bl	8001494 <ssd1306_UpdateScreen>
 8000d8e:	b005      	add	sp, #20
 8000d90:	bd30      	pop	{r4, r5, pc}
 8000d92:	4a07      	ldr	r2, [pc, #28]	@ (8000db0 <display_message+0x74>)
 8000d94:	e7e1      	b.n	8000d5a <display_message+0x1e>
 8000d96:	4a07      	ldr	r2, [pc, #28]	@ (8000db4 <display_message+0x78>)
 8000d98:	e7df      	b.n	8000d5a <display_message+0x1e>
 8000d9a:	4a07      	ldr	r2, [pc, #28]	@ (8000db8 <display_message+0x7c>)
 8000d9c:	e7dd      	b.n	8000d5a <display_message+0x1e>
 8000d9e:	46c0      	nop			@ (mov r8, r8)
 8000da0:	20000000 	.word	0x20000000
 8000da4:	20000009 	.word	0x20000009
 8000da8:	08004678 	.word	0x08004678
 8000dac:	0800463d 	.word	0x0800463d
 8000db0:	08004648 	.word	0x08004648
 8000db4:	08004658 	.word	0x08004658
 8000db8:	08004668 	.word	0x08004668

08000dbc <SystemClock_Config>:
 8000dbc:	b530      	push	{r4, r5, lr}
 8000dbe:	2510      	movs	r5, #16
 8000dc0:	b099      	sub	sp, #100	@ 0x64
 8000dc2:	222c      	movs	r2, #44	@ 0x2c
 8000dc4:	2100      	movs	r1, #0
 8000dc6:	a80d      	add	r0, sp, #52	@ 0x34
 8000dc8:	f002 ff84 	bl	8003cd4 <memset>
 8000dcc:	002a      	movs	r2, r5
 8000dce:	2100      	movs	r1, #0
 8000dd0:	4668      	mov	r0, sp
 8000dd2:	f002 ff7f 	bl	8003cd4 <memset>
 8000dd6:	221c      	movs	r2, #28
 8000dd8:	2100      	movs	r1, #0
 8000dda:	a804      	add	r0, sp, #16
 8000ddc:	f002 ff7a 	bl	8003cd4 <memset>
 8000de0:	2313      	movs	r3, #19
 8000de2:	930b      	str	r3, [sp, #44]	@ 0x2c
 8000de4:	2380      	movs	r3, #128	@ 0x80
 8000de6:	025b      	lsls	r3, r3, #9
 8000de8:	9315      	str	r3, [sp, #84]	@ 0x54
 8000dea:	2380      	movs	r3, #128	@ 0x80
 8000dec:	2401      	movs	r4, #1
 8000dee:	950f      	str	r5, [sp, #60]	@ 0x3c
 8000df0:	9511      	str	r5, [sp, #68]	@ 0x44
 8000df2:	035b      	lsls	r3, r3, #13
 8000df4:	3d0e      	subs	r5, #14
 8000df6:	a80b      	add	r0, sp, #44	@ 0x2c
 8000df8:	940c      	str	r4, [sp, #48]	@ 0x30
 8000dfa:	940e      	str	r4, [sp, #56]	@ 0x38
 8000dfc:	9410      	str	r4, [sp, #64]	@ 0x40
 8000dfe:	9514      	str	r5, [sp, #80]	@ 0x50
 8000e00:	9316      	str	r3, [sp, #88]	@ 0x58
 8000e02:	f001 fefd 	bl	8002c00 <HAL_RCC_OscConfig>
 8000e06:	2800      	cmp	r0, #0
 8000e08:	d001      	beq.n	8000e0e <SystemClock_Config+0x52>
 8000e0a:	b672      	cpsid	i
 8000e0c:	e7fe      	b.n	8000e0c <SystemClock_Config+0x50>
 8000e0e:	2307      	movs	r3, #7
 8000e10:	9002      	str	r0, [sp, #8]
 8000e12:	9003      	str	r0, [sp, #12]
 8000e14:	0021      	movs	r1, r4
 8000e16:	4668      	mov	r0, sp
 8000e18:	9300      	str	r3, [sp, #0]
 8000e1a:	9501      	str	r5, [sp, #4]
 8000e1c:	f002 f980 	bl	8003120 <HAL_RCC_ClockConfig>
 8000e20:	2800      	cmp	r0, #0
 8000e22:	d001      	beq.n	8000e28 <SystemClock_Config+0x6c>
 8000e24:	b672      	cpsid	i
 8000e26:	e7fe      	b.n	8000e26 <SystemClock_Config+0x6a>
 8000e28:	2320      	movs	r3, #32
 8000e2a:	9008      	str	r0, [sp, #32]
 8000e2c:	a804      	add	r0, sp, #16
 8000e2e:	9304      	str	r3, [sp, #16]
 8000e30:	f002 fa02 	bl	8003238 <HAL_RCCEx_PeriphCLKConfig>
 8000e34:	2800      	cmp	r0, #0
 8000e36:	d001      	beq.n	8000e3c <SystemClock_Config+0x80>
 8000e38:	b672      	cpsid	i
 8000e3a:	e7fe      	b.n	8000e3a <SystemClock_Config+0x7e>
 8000e3c:	b019      	add	sp, #100	@ 0x64
 8000e3e:	bd30      	pop	{r4, r5, pc}

08000e40 <main>:
 8000e40:	b5f0      	push	{r4, r5, r6, r7, lr}
 8000e42:	b091      	sub	sp, #68	@ 0x44
 8000e44:	f001 f844 	bl	8001ed0 <HAL_Init>
 8000e48:	f7ff ffb8 	bl	8000dbc <SystemClock_Config>
 8000e4c:	2214      	movs	r2, #20
 8000e4e:	2100      	movs	r1, #0
 8000e50:	a807      	add	r0, sp, #28
 8000e52:	f002 ff3f 	bl	8003cd4 <memset>
 8000e56:	2280      	movs	r2, #128	@ 0x80
 8000e58:	4eac      	ldr	r6, [pc, #688]	@ (800110c <main+0x2cc>)
 8000e5a:	03d2      	lsls	r2, r2, #15
 8000e5c:	6973      	ldr	r3, [r6, #20]
 8000e5e:	2090      	movs	r0, #144	@ 0x90
 8000e60:	4313      	orrs	r3, r2
 8000e62:	6173      	str	r3, [r6, #20]
 8000e64:	6973      	ldr	r3, [r6, #20]
 8000e66:	2108      	movs	r1, #8
 8000e68:	4013      	ands	r3, r2
 8000e6a:	2280      	movs	r2, #128	@ 0x80
 8000e6c:	9302      	str	r3, [sp, #8]
 8000e6e:	9b02      	ldr	r3, [sp, #8]
 8000e70:	6973      	ldr	r3, [r6, #20]
 8000e72:	0292      	lsls	r2, r2, #10
 8000e74:	4313      	orrs	r3, r2
 8000e76:	6173      	str	r3, [r6, #20]
 8000e78:	6973      	ldr	r3, [r6, #20]
 8000e7a:	05c0      	lsls	r0, r0, #23
 8000e7c:	4013      	ands	r3, r2
 8000e7e:	2280      	movs	r2, #128	@ 0x80
 8000e80:	9303      	str	r3, [sp, #12]
 8000e82:	9b03      	ldr	r3, [sp, #12]
 8000e84:	6973      	ldr	r3, [r6, #20]
 8000e86:	02d2      	lsls	r2, r2, #11
 8000e88:	4313      	orrs	r3, r2
 8000e8a:	6173      	str	r3, [r6, #20]
 8000e8c:	6973      	ldr	r3, [r6, #20]
 8000e8e:	2500      	movs	r5, #0
 8000e90:	4013      	ands	r3, r2
 8000e92:	9304      	str	r3, [sp, #16]
 8000e94:	2200      	movs	r2, #0
 8000e96:	9b04      	ldr	r3, [sp, #16]
 8000e98:	f001 fc7e 	bl	8002798 <HAL_GPIO_WritePin>
 8000e9c:	2200      	movs	r2, #0
 8000e9e:	2107      	movs	r1, #7
 8000ea0:	489b      	ldr	r0, [pc, #620]	@ (8001110 <main+0x2d0>)
 8000ea2:	f001 fc79 	bl	8002798 <HAL_GPIO_WritePin>
 8000ea6:	2090      	movs	r0, #144	@ 0x90
 8000ea8:	2306      	movs	r3, #6
 8000eaa:	a907      	add	r1, sp, #28
 8000eac:	05c0      	lsls	r0, r0, #23
 8000eae:	9307      	str	r3, [sp, #28]
 8000eb0:	9508      	str	r5, [sp, #32]
 8000eb2:	9509      	str	r5, [sp, #36]	@ 0x24
 8000eb4:	f001 fbac 	bl	8002610 <HAL_GPIO_Init>
 8000eb8:	2090      	movs	r0, #144	@ 0x90
 8000eba:	2401      	movs	r4, #1
 8000ebc:	2308      	movs	r3, #8
 8000ebe:	a907      	add	r1, sp, #28
 8000ec0:	05c0      	lsls	r0, r0, #23
 8000ec2:	9307      	str	r3, [sp, #28]
 8000ec4:	9408      	str	r4, [sp, #32]
 8000ec6:	9509      	str	r5, [sp, #36]	@ 0x24
 8000ec8:	950a      	str	r5, [sp, #40]	@ 0x28
 8000eca:	f001 fba1 	bl	8002610 <HAL_GPIO_Init>
 8000ece:	2310      	movs	r3, #16
 8000ed0:	2090      	movs	r0, #144	@ 0x90
 8000ed2:	9307      	str	r3, [sp, #28]
 8000ed4:	2388      	movs	r3, #136	@ 0x88
 8000ed6:	2707      	movs	r7, #7
 8000ed8:	035b      	lsls	r3, r3, #13
 8000eda:	a907      	add	r1, sp, #28
 8000edc:	05c0      	lsls	r0, r0, #23
 8000ede:	9308      	str	r3, [sp, #32]
 8000ee0:	9409      	str	r4, [sp, #36]	@ 0x24
 8000ee2:	f001 fb95 	bl	8002610 <HAL_GPIO_Init>
 8000ee6:	488a      	ldr	r0, [pc, #552]	@ (8001110 <main+0x2d0>)
 8000ee8:	a907      	add	r1, sp, #28
 8000eea:	9707      	str	r7, [sp, #28]
 8000eec:	9408      	str	r4, [sp, #32]
 8000eee:	9509      	str	r5, [sp, #36]	@ 0x24
 8000ef0:	950a      	str	r5, [sp, #40]	@ 0x28
 8000ef2:	f001 fb8d 	bl	8002610 <HAL_GPIO_Init>
 8000ef6:	2370      	movs	r3, #112	@ 0x70
 8000ef8:	4885      	ldr	r0, [pc, #532]	@ (8001110 <main+0x2d0>)
 8000efa:	a907      	add	r1, sp, #28
 8000efc:	9307      	str	r3, [sp, #28]
 8000efe:	9508      	str	r5, [sp, #32]
 8000f00:	9509      	str	r5, [sp, #36]	@ 0x24
 8000f02:	f001 fb85 	bl	8002610 <HAL_GPIO_Init>
 8000f06:	2380      	movs	r3, #128	@ 0x80
 8000f08:	4881      	ldr	r0, [pc, #516]	@ (8001110 <main+0x2d0>)
 8000f0a:	009b      	lsls	r3, r3, #2
 8000f0c:	a907      	add	r1, sp, #28
 8000f0e:	9307      	str	r3, [sp, #28]
 8000f10:	9508      	str	r5, [sp, #32]
 8000f12:	9409      	str	r4, [sp, #36]	@ 0x24
 8000f14:	f001 fb7c 	bl	8002610 <HAL_GPIO_Init>
 8000f18:	002a      	movs	r2, r5
 8000f1a:	0029      	movs	r1, r5
 8000f1c:	0038      	movs	r0, r7
 8000f1e:	f001 fa6f 	bl	8002400 <HAL_NVIC_SetPriority>
 8000f22:	0038      	movs	r0, r7
 8000f24:	f001 fa96 	bl	8002454 <HAL_NVIC_EnableIRQ>
 8000f28:	6973      	ldr	r3, [r6, #20]
 8000f2a:	002a      	movs	r2, r5
 8000f2c:	4323      	orrs	r3, r4
 8000f2e:	6173      	str	r3, [r6, #20]
 8000f30:	6973      	ldr	r3, [r6, #20]
 8000f32:	0029      	movs	r1, r5
 8000f34:	4023      	ands	r3, r4
 8000f36:	2009      	movs	r0, #9
 8000f38:	9301      	str	r3, [sp, #4]
 8000f3a:	9b01      	ldr	r3, [sp, #4]
 8000f3c:	f001 fa60 	bl	8002400 <HAL_NVIC_SetPriority>
 8000f40:	2009      	movs	r0, #9
 8000f42:	f001 fa87 	bl	8002454 <HAL_NVIC_EnableIRQ>
 8000f46:	220c      	movs	r2, #12
 8000f48:	0029      	movs	r1, r5
 8000f4a:	a807      	add	r0, sp, #28
 8000f4c:	f002 fec2 	bl	8003cd4 <memset>
 8000f50:	4e70      	ldr	r6, [pc, #448]	@ (8001114 <main+0x2d4>)
 8000f52:	4b71      	ldr	r3, [pc, #452]	@ (8001118 <main+0x2d8>)
 8000f54:	0030      	movs	r0, r6
 8000f56:	6033      	str	r3, [r6, #0]
 8000f58:	2304      	movs	r3, #4
 8000f5a:	6173      	str	r3, [r6, #20]
 8000f5c:	2380      	movs	r3, #128	@ 0x80
 8000f5e:	025b      	lsls	r3, r3, #9
 8000f60:	61b3      	str	r3, [r6, #24]
 8000f62:	23c2      	movs	r3, #194	@ 0xc2
 8000f64:	33ff      	adds	r3, #255	@ 0xff
 8000f66:	61f3      	str	r3, [r6, #28]
 8000f68:	1d73      	adds	r3, r6, #5
 8000f6a:	6075      	str	r5, [r6, #4]
 8000f6c:	60b5      	str	r5, [r6, #8]
 8000f6e:	60f5      	str	r5, [r6, #12]
 8000f70:	6134      	str	r4, [r6, #16]
 8000f72:	6235      	str	r5, [r6, #32]
 8000f74:	77dd      	strb	r5, [r3, #31]
 8000f76:	62b4      	str	r4, [r6, #40]	@ 0x28
 8000f78:	f001 f82e 	bl	8001fd8 <HAL_ADC_Init>
 8000f7c:	42a8      	cmp	r0, r5
 8000f7e:	d001      	beq.n	8000f84 <main+0x144>
 8000f80:	b672      	cpsid	i
 8000f82:	e7fe      	b.n	8000f82 <main+0x142>
 8000f84:	2380      	movs	r3, #128	@ 0x80
 8000f86:	9007      	str	r0, [sp, #28]
 8000f88:	015b      	lsls	r3, r3, #5
 8000f8a:	0030      	movs	r0, r6
 8000f8c:	a907      	add	r1, sp, #28
 8000f8e:	9308      	str	r3, [sp, #32]
 8000f90:	9709      	str	r7, [sp, #36]	@ 0x24
 8000f92:	f001 f959 	bl	8002248 <HAL_ADC_ConfigChannel>
 8000f96:	1e03      	subs	r3, r0, #0
 8000f98:	d001      	beq.n	8000f9e <main+0x15e>
 8000f9a:	b672      	cpsid	i
 8000f9c:	e7fe      	b.n	8000f9c <main+0x15c>
 8000f9e:	485f      	ldr	r0, [pc, #380]	@ (800111c <main+0x2dc>)
 8000fa0:	4a5f      	ldr	r2, [pc, #380]	@ (8001120 <main+0x2e0>)
 8000fa2:	6143      	str	r3, [r0, #20]
 8000fa4:	6002      	str	r2, [r0, #0]
 8000fa6:	2282      	movs	r2, #130	@ 0x82
 8000fa8:	0052      	lsls	r2, r2, #1
 8000faa:	6042      	str	r2, [r0, #4]
 8000fac:	2280      	movs	r2, #128	@ 0x80
 8000fae:	0212      	lsls	r2, r2, #8
 8000fb0:	6082      	str	r2, [r0, #8]
 8000fb2:	22e0      	movs	r2, #224	@ 0xe0
 8000fb4:	00d2      	lsls	r2, r2, #3
 8000fb6:	60c2      	str	r2, [r0, #12]
 8000fb8:	2202      	movs	r2, #2
 8000fba:	6203      	str	r3, [r0, #32]
 8000fbc:	6243      	str	r3, [r0, #36]	@ 0x24
 8000fbe:	6283      	str	r3, [r0, #40]	@ 0x28
 8000fc0:	6303      	str	r3, [r0, #48]	@ 0x30
 8000fc2:	2308      	movs	r3, #8
 8000fc4:	6102      	str	r2, [r0, #16]
 8000fc6:	32ff      	adds	r2, #255	@ 0xff
 8000fc8:	32ff      	adds	r2, #255	@ 0xff
 8000fca:	6182      	str	r2, [r0, #24]
 8000fcc:	3ae1      	subs	r2, #225	@ 0xe1
 8000fce:	3aff      	subs	r2, #255	@ 0xff
 8000fd0:	61c2      	str	r2, [r0, #28]
 8000fd2:	62c7      	str	r7, [r0, #44]	@ 0x2c
 8000fd4:	6343      	str	r3, [r0, #52]	@ 0x34
 8000fd6:	f002 fabf 	bl	8003558 <HAL_SPI_Init>
 8000fda:	1e06      	subs	r6, r0, #0
 8000fdc:	d001      	beq.n	8000fe2 <main+0x1a2>
 8000fde:	b672      	cpsid	i
 8000fe0:	e7fe      	b.n	8000fe0 <main+0x1a0>
 8000fe2:	0001      	movs	r1, r0
 8000fe4:	2214      	movs	r2, #20
 8000fe6:	a80a      	add	r0, sp, #40	@ 0x28
 8000fe8:	f002 fe74 	bl	8003cd4 <memset>
 8000fec:	2208      	movs	r2, #8
 8000fee:	0031      	movs	r1, r6
 8000ff0:	a805      	add	r0, sp, #20
 8000ff2:	f002 fe6f 	bl	8003cd4 <memset>
 8000ff6:	2380      	movs	r3, #128	@ 0x80
 8000ff8:	4d4a      	ldr	r5, [pc, #296]	@ (8001124 <main+0x2e4>)
 8000ffa:	05db      	lsls	r3, r3, #23
 8000ffc:	2201      	movs	r2, #1
 8000ffe:	602b      	str	r3, [r5, #0]
 8001000:	2303      	movs	r3, #3
 8001002:	4252      	negs	r2, r2
 8001004:	606b      	str	r3, [r5, #4]
 8001006:	60ea      	str	r2, [r5, #12]
 8001008:	9307      	str	r3, [sp, #28]
 800100a:	18d2      	adds	r2, r2, r3
 800100c:	0028      	movs	r0, r5
 800100e:	3302      	adds	r3, #2
 8001010:	a907      	add	r1, sp, #28
 8001012:	60ae      	str	r6, [r5, #8]
 8001014:	612e      	str	r6, [r5, #16]
 8001016:	61ae      	str	r6, [r5, #24]
 8001018:	9208      	str	r2, [sp, #32]
 800101a:	9409      	str	r4, [sp, #36]	@ 0x24
 800101c:	930b      	str	r3, [sp, #44]	@ 0x2c
 800101e:	920c      	str	r2, [sp, #48]	@ 0x30
 8001020:	940d      	str	r4, [sp, #52]	@ 0x34
 8001022:	930f      	str	r3, [sp, #60]	@ 0x3c
 8001024:	f002 fd98 	bl	8003b58 <HAL_TIM_Encoder_Init>
 8001028:	2800      	cmp	r0, #0
 800102a:	d001      	beq.n	8001030 <main+0x1f0>
 800102c:	b672      	cpsid	i
 800102e:	e7fe      	b.n	800102e <main+0x1ee>
 8001030:	9005      	str	r0, [sp, #20]
 8001032:	9006      	str	r0, [sp, #24]
 8001034:	a905      	add	r1, sp, #20
 8001036:	0028      	movs	r0, r5
 8001038:	f002 fde4 	bl	8003c04 <HAL_TIMEx_MasterConfigSynchronization>
 800103c:	1e06      	subs	r6, r0, #0
 800103e:	d001      	beq.n	8001044 <main+0x204>
 8001040:	b672      	cpsid	i
 8001042:	e7fe      	b.n	8001042 <main+0x202>
 8001044:	0001      	movs	r1, r0
 8001046:	2208      	movs	r2, #8
 8001048:	a807      	add	r0, sp, #28
 800104a:	f002 fe43 	bl	8003cd4 <memset>
 800104e:	4d36      	ldr	r5, [pc, #216]	@ (8001128 <main+0x2e8>)
 8001050:	4b36      	ldr	r3, [pc, #216]	@ (800112c <main+0x2ec>)
 8001052:	272f      	movs	r7, #47	@ 0x2f
 8001054:	602b      	str	r3, [r5, #0]
 8001056:	235a      	movs	r3, #90	@ 0x5a
 8001058:	0028      	movs	r0, r5
 800105a:	606f      	str	r7, [r5, #4]
 800105c:	60ae      	str	r6, [r5, #8]
 800105e:	60eb      	str	r3, [r5, #12]
 8001060:	61ae      	str	r6, [r5, #24]
 8001062:	f002 fd51 	bl	8003b08 <HAL_TIM_Base_Init>
 8001066:	2800      	cmp	r0, #0
 8001068:	d001      	beq.n	800106e <main+0x22e>
 800106a:	b672      	cpsid	i
 800106c:	e7fe      	b.n	800106c <main+0x22c>
 800106e:	9007      	str	r0, [sp, #28]
 8001070:	9008      	str	r0, [sp, #32]
 8001072:	a907      	add	r1, sp, #28
 8001074:	0028      	movs	r0, r5
 8001076:	f002 fdc5 	bl	8003c04 <HAL_TIMEx_MasterConfigSynchronization>
 800107a:	1e05      	subs	r5, r0, #0
 800107c:	d001      	beq.n	8001082 <main+0x242>
 800107e:	b672      	cpsid	i
 8001080:	e7fe      	b.n	8001080 <main+0x240>
 8001082:	0001      	movs	r1, r0
 8001084:	2208      	movs	r2, #8
 8001086:	a807      	add	r0, sp, #28
 8001088:	f002 fe24 	bl	8003cd4 <memset>
 800108c:	4e28      	ldr	r6, [pc, #160]	@ (8001130 <main+0x2f0>)
 800108e:	4b29      	ldr	r3, [pc, #164]	@ (8001134 <main+0x2f4>)
 8001090:	0030      	movs	r0, r6
 8001092:	6033      	str	r3, [r6, #0]
 8001094:	4b28      	ldr	r3, [pc, #160]	@ (8001138 <main+0x2f8>)
 8001096:	6077      	str	r7, [r6, #4]
 8001098:	60b5      	str	r5, [r6, #8]
 800109a:	60f3      	str	r3, [r6, #12]
 800109c:	61b5      	str	r5, [r6, #24]
 800109e:	f002 fd33 	bl	8003b08 <HAL_TIM_Base_Init>
 80010a2:	2800      	cmp	r0, #0
 80010a4:	d001      	beq.n	80010aa <main+0x26a>
 80010a6:	b672      	cpsid	i
 80010a8:	e7fe      	b.n	80010a8 <main+0x268>
 80010aa:	9007      	str	r0, [sp, #28]
 80010ac:	9008      	str	r0, [sp, #32]
 80010ae:	a907      	add	r1, sp, #28
 80010b0:	0030      	movs	r0, r6
 80010b2:	f002 fda7 	bl	8003c04 <HAL_TIMEx_MasterConfigSynchronization>
 80010b6:	2800      	cmp	r0, #0
 80010b8:	d001      	beq.n	80010be <main+0x27e>
 80010ba:	b672      	cpsid	i
 80010bc:	e7fe      	b.n	80010bc <main+0x27c>
 80010be:	4d1f      	ldr	r5, [pc, #124]	@ (800113c <main+0x2fc>)
 80010c0:	4b1f      	ldr	r3, [pc, #124]	@ (8001140 <main+0x300>)
 80010c2:	60a8      	str	r0, [r5, #8]
 80010c4:	602b      	str	r3, [r5, #0]
 80010c6:	4b1f      	ldr	r3, [pc, #124]	@ (8001144 <main+0x304>)
 80010c8:	6128      	str	r0, [r5, #16]
 80010ca:	6168      	str	r0, [r5, #20]
 80010cc:	61a8      	str	r0, [r5, #24]
 80010ce:	61e8      	str	r0, [r5, #28]
 80010d0:	6228      	str	r0, [r5, #32]
 80010d2:	0028      	movs	r0, r5
 80010d4:	606b      	str	r3, [r5, #4]
 80010d6:	60ec      	str	r4, [r5, #12]
 80010d8:	f001 fc64 	bl	80029a4 <HAL_I2C_Init>
 80010dc:	2800      	cmp	r0, #0
 80010de:	d001      	beq.n	80010e4 <main+0x2a4>
 80010e0:	b672      	cpsid	i
 80010e2:	e7fe      	b.n	80010e2 <main+0x2a2>
 80010e4:	2100      	movs	r1, #0
 80010e6:	0028      	movs	r0, r5
 80010e8:	f001 fd40 	bl	8002b6c <HAL_I2CEx_ConfigAnalogFilter>
 80010ec:	1e01      	subs	r1, r0, #0
 80010ee:	d001      	beq.n	80010f4 <main+0x2b4>
 80010f0:	b672      	cpsid	i
 80010f2:	e7fe      	b.n	80010f2 <main+0x2b2>
 80010f4:	0028      	movs	r0, r5
 80010f6:	f001 fd5f 	bl	8002bb8 <HAL_I2CEx_ConfigDigitalFilter>
 80010fa:	2800      	cmp	r0, #0
 80010fc:	d001      	beq.n	8001102 <main+0x2c2>
 80010fe:	b672      	cpsid	i
 8001100:	e7fe      	b.n	8001100 <main+0x2c0>
 8001102:	f000 f823 	bl	800114c <opensolder_init>
 8001106:	f000 f861 	bl	80011cc <opensolder_main>
 800110a:	e7fc      	b.n	8001106 <main+0x2c6>
 800110c:	40021000 	.word	0x40021000
 8001110:	48000400 	.word	0x48000400
 8001114:	20000308 	.word	0x20000308
 8001118:	40012400 	.word	0x40012400
 800111c:	20000214 	.word	0x20000214
 8001120:	40013000 	.word	0x40013000
 8001124:	200001cc 	.word	0x200001cc
 8001128:	20000184 	.word	0x20000184
 800112c:	40001000 	.word	0x40001000
 8001130:	2000013c 	.word	0x2000013c
 8001134:	40001400 	.word	0x40001400
 8001138:	000007cf 	.word	0x000007cf
 800113c:	20000278 	.word	0x20000278
 8001140:	40005400 	.word	0x40005400
 8001144:	2000090e 	.word	0x2000090e

08001148 <Error_Handler>:
 8001148:	b672      	cpsid	i
 800114a:	e7fe      	b.n	800114a <Error_Handler+0x2>

0800114c <opensolder_init>:
 800114c:	b510      	push	{r4, lr}
 800114e:	213c      	movs	r1, #60	@ 0x3c
 8001150:	4815      	ldr	r0, [pc, #84]	@ (80011a8 <opensolder_init+0x5c>)
 8001152:	f002 fb81 	bl	8003858 <HAL_TIM_Encoder_Start>
 8001156:	4815      	ldr	r0, [pc, #84]	@ (80011ac <opensolder_init+0x60>)
 8001158:	f001 fc24 	bl	80029a4 <HAL_I2C_Init>
 800115c:	4c14      	ldr	r4, [pc, #80]	@ (80011b0 <opensolder_init+0x64>)
 800115e:	4815      	ldr	r0, [pc, #84]	@ (80011b4 <opensolder_init+0x68>)
 8001160:	f001 f8f6 	bl	8002350 <HAL_ADCEx_Calibration_Start>
 8001164:	2032      	movs	r0, #50	@ 0x32
 8001166:	f000 fed5 	bl	8001f14 <HAL_Delay>
 800116a:	0021      	movs	r1, r4
 800116c:	2364      	movs	r3, #100	@ 0x64
 800116e:	2240      	movs	r2, #64	@ 0x40
 8001170:	4811      	ldr	r0, [pc, #68]	@ (80011b8 <opensolder_init+0x6c>)
 8001172:	f7ff fbc1 	bl	80008f8 <button_init>
 8001176:	0021      	movs	r1, r4
 8001178:	2364      	movs	r3, #100	@ 0x64
 800117a:	2220      	movs	r2, #32
 800117c:	480f      	ldr	r0, [pc, #60]	@ (80011bc <opensolder_init+0x70>)
 800117e:	f7ff fbbb 	bl	80008f8 <button_init>
 8001182:	2364      	movs	r3, #100	@ 0x64
 8001184:	2210      	movs	r2, #16
 8001186:	0021      	movs	r1, r4
 8001188:	480d      	ldr	r0, [pc, #52]	@ (80011c0 <opensolder_init+0x74>)
 800118a:	f7ff fbb5 	bl	80008f8 <button_init>
 800118e:	2180      	movs	r1, #128	@ 0x80
 8001190:	480c      	ldr	r0, [pc, #48]	@ (80011c4 <opensolder_init+0x78>)
 8001192:	05c9      	lsls	r1, r1, #23
 8001194:	f7ff fbfc 	bl	8000990 <encoder_init>
 8001198:	20fa      	movs	r0, #250	@ 0xfa
 800119a:	0080      	lsls	r0, r0, #2
 800119c:	f7ff fc7c 	bl	8000a98 <init_display>
 80011a0:	2200      	movs	r2, #0
 80011a2:	4b09      	ldr	r3, [pc, #36]	@ (80011c8 <opensolder_init+0x7c>)
 80011a4:	701a      	strb	r2, [r3, #0]
 80011a6:	bd10      	pop	{r4, pc}
 80011a8:	200001cc 	.word	0x200001cc
 80011ac:	20000278 	.word	0x20000278
 80011b0:	48000400 	.word	0x48000400
 80011b4:	20000308 	.word	0x20000308
 80011b8:	2000038c 	.word	0x2000038c
 80011bc:	2000037c 	.word	0x2000037c
 80011c0:	2000036c 	.word	0x2000036c
 80011c4:	2000035c 	.word	0x2000035c
 80011c8:	2000039c 	.word	0x2000039c

080011cc <opensolder_main>:
 80011cc:	b5f8      	push	{r3, r4, r5, r6, r7, lr}
 80011ce:	4864      	ldr	r0, [pc, #400]	@ (8001360 <opensolder_main+0x194>)
 80011d0:	f7ff fb9c 	bl	800090c <button_event>
 80011d4:	4d63      	ldr	r5, [pc, #396]	@ (8001364 <opensolder_main+0x198>)
 80011d6:	0028      	movs	r0, r5
 80011d8:	f7ff fc05 	bl	80009e6 <encoder_event>
 80011dc:	4e62      	ldr	r6, [pc, #392]	@ (8001368 <opensolder_main+0x19c>)
 80011de:	7030      	strb	r0, [r6, #0]
 80011e0:	4862      	ldr	r0, [pc, #392]	@ (800136c <opensolder_main+0x1a0>)
 80011e2:	f7ff fb9e 	bl	8000922 <button_state>
 80011e6:	4f62      	ldr	r7, [pc, #392]	@ (8001370 <opensolder_main+0x1a4>)
 80011e8:	1e04      	subs	r4, r0, #0
 80011ea:	d042      	beq.n	8001272 <opensolder_main+0xa6>
 80011ec:	2201      	movs	r2, #1
 80011ee:	4b61      	ldr	r3, [pc, #388]	@ (8001374 <opensolder_main+0x1a8>)
 80011f0:	701a      	strb	r2, [r3, #0]
 80011f2:	f000 fe89 	bl	8001f08 <HAL_GetTick>
 80011f6:	302d      	adds	r0, #45	@ 0x2d
 80011f8:	30ff      	adds	r0, #255	@ 0xff
 80011fa:	6038      	str	r0, [r7, #0]
 80011fc:	485e      	ldr	r0, [pc, #376]	@ (8001378 <opensolder_main+0x1ac>)
 80011fe:	f7ff fb90 	bl	8000922 <button_state>
 8001202:	4f5e      	ldr	r7, [pc, #376]	@ (800137c <opensolder_main+0x1b0>)
 8001204:	1e04      	subs	r4, r0, #0
 8001206:	d03c      	beq.n	8001282 <opensolder_main+0xb6>
 8001208:	2201      	movs	r2, #1
 800120a:	4b5d      	ldr	r3, [pc, #372]	@ (8001380 <opensolder_main+0x1b4>)
 800120c:	701a      	strb	r2, [r3, #0]
 800120e:	f000 fe7b 	bl	8001f08 <HAL_GetTick>
 8001212:	23fa      	movs	r3, #250	@ 0xfa
 8001214:	00db      	lsls	r3, r3, #3
 8001216:	18c0      	adds	r0, r0, r3
 8001218:	6038      	str	r0, [r7, #0]
 800121a:	7833      	ldrb	r3, [r6, #0]
 800121c:	2b33      	cmp	r3, #51	@ 0x33
 800121e:	d016      	beq.n	800124e <opensolder_main+0x82>
 8001220:	f000 fd24 	bl	8001c6c <get_set_temp>
 8001224:	0004      	movs	r4, r0
 8001226:	0028      	movs	r0, r5
 8001228:	f7ff fbc3 	bl	80009b2 <get_encoder_delta>
 800122c:	2305      	movs	r3, #5
 800122e:	4358      	muls	r0, r3
 8001230:	1820      	adds	r0, r4, r0
 8001232:	1c03      	adds	r3, r0, #0
 8001234:	b200      	sxth	r0, r0
 8001236:	281e      	cmp	r0, #30
 8001238:	da00      	bge.n	800123c <opensolder_main+0x70>
 800123a:	231e      	movs	r3, #30
 800123c:	22d2      	movs	r2, #210	@ 0xd2
 800123e:	b219      	sxth	r1, r3
 8001240:	0052      	lsls	r2, r2, #1
 8001242:	4291      	cmp	r1, r2
 8001244:	dd00      	ble.n	8001248 <opensolder_main+0x7c>
 8001246:	1c13      	adds	r3, r2, #0
 8001248:	b298      	uxth	r0, r3
 800124a:	f000 fd09 	bl	8001c60 <set_new_temp>
 800124e:	f000 fd19 	bl	8001c84 <get_tip_state>
 8001252:	0005      	movs	r5, r0
 8001254:	f000 fe58 	bl	8001f08 <HAL_GetTick>
 8001258:	0006      	movs	r6, r0
 800125a:	f000 fcf5 	bl	8001c48 <get_ac_delay_tick>
 800125e:	4c49      	ldr	r4, [pc, #292]	@ (8001384 <opensolder_main+0x1b8>)
 8001260:	4286      	cmp	r6, r0
 8001262:	d916      	bls.n	8001292 <opensolder_main+0xc6>
 8001264:	f000 fd14 	bl	8001c90 <error_handler>
 8001268:	2006      	movs	r0, #6
 800126a:	f7ff fd67 	bl	8000d3c <display_message>
 800126e:	2305      	movs	r3, #5
 8001270:	e01c      	b.n	80012ac <opensolder_main+0xe0>
 8001272:	f000 fe49 	bl	8001f08 <HAL_GetTick>
 8001276:	683b      	ldr	r3, [r7, #0]
 8001278:	4298      	cmp	r0, r3
 800127a:	d9bf      	bls.n	80011fc <opensolder_main+0x30>
 800127c:	4b3d      	ldr	r3, [pc, #244]	@ (8001374 <opensolder_main+0x1a8>)
 800127e:	701c      	strb	r4, [r3, #0]
 8001280:	e7bc      	b.n	80011fc <opensolder_main+0x30>
 8001282:	f000 fe41 	bl	8001f08 <HAL_GetTick>
 8001286:	683b      	ldr	r3, [r7, #0]
 8001288:	4298      	cmp	r0, r3
 800128a:	d9c6      	bls.n	800121a <opensolder_main+0x4e>
 800128c:	4b3c      	ldr	r3, [pc, #240]	@ (8001380 <opensolder_main+0x1b4>)
 800128e:	701c      	strb	r4, [r3, #0]
 8001290:	e7c3      	b.n	800121a <opensolder_main+0x4e>
 8001292:	7820      	ldrb	r0, [r4, #0]
 8001294:	2805      	cmp	r0, #5
 8001296:	d8ea      	bhi.n	800126e <opensolder_main+0xa2>
 8001298:	f7fe ff3e 	bl	8000118 <__gnu_thumb1_case_uqi>
 800129c:	39260a03 	.word	0x39260a03
 80012a0:	5d4b      	.short	0x5d4b
 80012a2:	f000 fcd7 	bl	8001c54 <heater_off>
 80012a6:	f7ff fc4b 	bl	8000b40 <draw_default_display>
 80012aa:	2301      	movs	r3, #1
 80012ac:	7023      	strb	r3, [r4, #0]
 80012ae:	e00d      	b.n	80012cc <opensolder_main+0x100>
 80012b0:	f000 fcd0 	bl	8001c54 <heater_off>
 80012b4:	4e34      	ldr	r6, [pc, #208]	@ (8001388 <opensolder_main+0x1bc>)
 80012b6:	2d03      	cmp	r5, #3
 80012b8:	d009      	beq.n	80012ce <opensolder_main+0x102>
 80012ba:	f000 fe25 	bl	8001f08 <HAL_GetTick>
 80012be:	23fa      	movs	r3, #250	@ 0xfa
 80012c0:	00db      	lsls	r3, r3, #3
 80012c2:	18c0      	adds	r0, r0, r3
 80012c4:	6030      	str	r0, [r6, #0]
 80012c6:	0028      	movs	r0, r5
 80012c8:	f7ff fd38 	bl	8000d3c <display_message>
 80012cc:	bdf8      	pop	{r3, r4, r5, r6, r7, pc}
 80012ce:	f000 fe1b 	bl	8001f08 <HAL_GetTick>
 80012d2:	6833      	ldr	r3, [r6, #0]
 80012d4:	4298      	cmp	r0, r3
 80012d6:	d9f9      	bls.n	80012cc <opensolder_main+0x100>
 80012d8:	4b29      	ldr	r3, [pc, #164]	@ (8001380 <opensolder_main+0x1b4>)
 80012da:	781b      	ldrb	r3, [r3, #0]
 80012dc:	2b00      	cmp	r3, #0
 80012de:	d1f5      	bne.n	80012cc <opensolder_main+0x100>
 80012e0:	f7ff fc2e 	bl	8000b40 <draw_default_display>
 80012e4:	2302      	movs	r3, #2
 80012e6:	e7e1      	b.n	80012ac <opensolder_main+0xe0>
 80012e8:	f000 fcb4 	bl	8001c54 <heater_off>
 80012ec:	4b24      	ldr	r3, [pc, #144]	@ (8001380 <opensolder_main+0x1b4>)
 80012ee:	781b      	ldrb	r3, [r3, #0]
 80012f0:	2b00      	cmp	r3, #0
 80012f2:	d101      	bne.n	80012f8 <opensolder_main+0x12c>
 80012f4:	2d03      	cmp	r5, #3
 80012f6:	d004      	beq.n	8001302 <opensolder_main+0x136>
 80012f8:	2301      	movs	r3, #1
 80012fa:	7023      	strb	r3, [r4, #0]
 80012fc:	f7ff fc76 	bl	8000bec <update_display>
 8001300:	e7e4      	b.n	80012cc <opensolder_main+0x100>
 8001302:	4b1c      	ldr	r3, [pc, #112]	@ (8001374 <opensolder_main+0x1a8>)
 8001304:	781b      	ldrb	r3, [r3, #0]
 8001306:	2b00      	cmp	r3, #0
 8001308:	d1f8      	bne.n	80012fc <opensolder_main+0x130>
 800130a:	2303      	movs	r3, #3
 800130c:	e7f5      	b.n	80012fa <opensolder_main+0x12e>
 800130e:	4b1c      	ldr	r3, [pc, #112]	@ (8001380 <opensolder_main+0x1b4>)
 8001310:	781b      	ldrb	r3, [r3, #0]
 8001312:	2b00      	cmp	r3, #0
 8001314:	d1f0      	bne.n	80012f8 <opensolder_main+0x12c>
 8001316:	2d03      	cmp	r5, #3
 8001318:	d1ee      	bne.n	80012f8 <opensolder_main+0x12c>
 800131a:	4b16      	ldr	r3, [pc, #88]	@ (8001374 <opensolder_main+0x1a8>)
 800131c:	781b      	ldrb	r3, [r3, #0]
 800131e:	2b00      	cmp	r3, #0
 8001320:	d0ec      	beq.n	80012fc <opensolder_main+0x130>
 8001322:	f000 fdf1 	bl	8001f08 <HAL_GetTick>
 8001326:	4a19      	ldr	r2, [pc, #100]	@ (800138c <opensolder_main+0x1c0>)
 8001328:	4b19      	ldr	r3, [pc, #100]	@ (8001390 <opensolder_main+0x1c4>)
 800132a:	1880      	adds	r0, r0, r2
 800132c:	6018      	str	r0, [r3, #0]
 800132e:	2304      	movs	r3, #4
 8001330:	e7e3      	b.n	80012fa <opensolder_main+0x12e>
 8001332:	4b13      	ldr	r3, [pc, #76]	@ (8001380 <opensolder_main+0x1b4>)
 8001334:	781b      	ldrb	r3, [r3, #0]
 8001336:	2b00      	cmp	r3, #0
 8001338:	d1de      	bne.n	80012f8 <opensolder_main+0x12c>
 800133a:	2d03      	cmp	r5, #3
 800133c:	d1dc      	bne.n	80012f8 <opensolder_main+0x12c>
 800133e:	4b0d      	ldr	r3, [pc, #52]	@ (8001374 <opensolder_main+0x1a8>)
 8001340:	781b      	ldrb	r3, [r3, #0]
 8001342:	2b00      	cmp	r3, #0
 8001344:	d0e1      	beq.n	800130a <opensolder_main+0x13e>
 8001346:	f000 fddf 	bl	8001f08 <HAL_GetTick>
 800134a:	4b11      	ldr	r3, [pc, #68]	@ (8001390 <opensolder_main+0x1c4>)
 800134c:	681b      	ldr	r3, [r3, #0]
 800134e:	4298      	cmp	r0, r3
 8001350:	d9d4      	bls.n	80012fc <opensolder_main+0x130>
 8001352:	2302      	movs	r3, #2
 8001354:	e7d1      	b.n	80012fa <opensolder_main+0x12e>
 8001356:	f000 fc9b 	bl	8001c90 <error_handler>
 800135a:	2300      	movs	r3, #0
 800135c:	e7a6      	b.n	80012ac <opensolder_main+0xe0>
 800135e:	46c0      	nop			@ (mov r8, r8)
 8001360:	2000036c 	.word	0x2000036c
 8001364:	2000035c 	.word	0x2000035c
 8001368:	20000358 	.word	0x20000358
 800136c:	2000038c 	.word	0x2000038c
 8001370:	20000354 	.word	0x20000354
 8001374:	2000035a 	.word	0x2000035a
 8001378:	2000037c 	.word	0x2000037c
 800137c:	20000350 	.word	0x20000350
 8001380:	20000359 	.word	0x20000359
 8001384:	2000039c 	.word	0x2000039c
 8001388:	2000034c 	.word	0x2000034c
 800138c:	000493e0 	.word	0x000493e0
 8001390:	20000348 	.word	0x20000348

08001394 <sensor_scan>:
 8001394:	b510      	push	{r4, lr}
 8001396:	4805      	ldr	r0, [pc, #20]	@ (80013ac <sensor_scan+0x18>)
 8001398:	f7ff fac6 	bl	8000928 <button_scan>
 800139c:	4804      	ldr	r0, [pc, #16]	@ (80013b0 <sensor_scan+0x1c>)
 800139e:	f7ff fac3 	bl	8000928 <button_scan>
 80013a2:	4804      	ldr	r0, [pc, #16]	@ (80013b4 <sensor_scan+0x20>)
 80013a4:	f7ff fac0 	bl	8000928 <button_scan>
 80013a8:	bd10      	pop	{r4, pc}
 80013aa:	46c0      	nop			@ (mov r8, r8)
 80013ac:	2000038c 	.word	0x2000038c
 80013b0:	2000037c 	.word	0x2000037c
 80013b4:	2000036c 	.word	0x2000036c

080013b8 <get_system_state>:
 80013b8:	4b01      	ldr	r3, [pc, #4]	@ (80013c0 <get_system_state+0x8>)
 80013ba:	7818      	ldrb	r0, [r3, #0]
 80013bc:	4770      	bx	lr
 80013be:	46c0      	nop			@ (mov r8, r8)
 80013c0:	2000039c 	.word	0x2000039c

080013c4 <ssd1306_Reset>:
 80013c4:	b510      	push	{r4, lr}
 80013c6:	4c0b      	ldr	r4, [pc, #44]	@ (80013f4 <ssd1306_Reset+0x30>)
 80013c8:	2201      	movs	r2, #1
 80013ca:	0020      	movs	r0, r4
 80013cc:	2104      	movs	r1, #4
 80013ce:	f001 f9e3 	bl	8002798 <HAL_GPIO_WritePin>
 80013d2:	2200      	movs	r2, #0
 80013d4:	2101      	movs	r1, #1
 80013d6:	0020      	movs	r0, r4
 80013d8:	f001 f9de 	bl	8002798 <HAL_GPIO_WritePin>
 80013dc:	200a      	movs	r0, #10
 80013de:	f000 fd99 	bl	8001f14 <HAL_Delay>
 80013e2:	2201      	movs	r2, #1
 80013e4:	0020      	movs	r0, r4
 80013e6:	0011      	movs	r1, r2
 80013e8:	f001 f9d6 	bl	8002798 <HAL_GPIO_WritePin>
 80013ec:	200a      	movs	r0, #10
 80013ee:	f000 fd91 	bl	8001f14 <HAL_Delay>
 80013f2:	bd10      	pop	{r4, pc}
 80013f4:	48000400 	.word	0x48000400

080013f8 <ssd1306_WriteCommand>:
 80013f8:	b537      	push	{r0, r1, r2, r4, r5, lr}
 80013fa:	466b      	mov	r3, sp
 80013fc:	4c0c      	ldr	r4, [pc, #48]	@ (8001430 <ssd1306_WriteCommand+0x38>)
 80013fe:	71d8      	strb	r0, [r3, #7]
 8001400:	2200      	movs	r2, #0
 8001402:	0020      	movs	r0, r4
 8001404:	2104      	movs	r1, #4
 8001406:	1ddd      	adds	r5, r3, #7
 8001408:	f001 f9c6 	bl	8002798 <HAL_GPIO_WritePin>
 800140c:	0020      	movs	r0, r4
 800140e:	2200      	movs	r2, #0
 8001410:	2102      	movs	r1, #2
 8001412:	f001 f9c1 	bl	8002798 <HAL_GPIO_WritePin>
 8001416:	2301      	movs	r3, #1
 8001418:	0029      	movs	r1, r5
 800141a:	425b      	negs	r3, r3
 800141c:	2201      	movs	r2, #1
 800141e:	4805      	ldr	r0, [pc, #20]	@ (8001434 <ssd1306_WriteCommand+0x3c>)
 8001420:	f002 f912 	bl	8003648 <HAL_SPI_Transmit>
 8001424:	2201      	movs	r2, #1
 8001426:	2104      	movs	r1, #4
 8001428:	0020      	movs	r0, r4
 800142a:	f001 f9b5 	bl	8002798 <HAL_GPIO_WritePin>
 800142e:	bd37      	pop	{r0, r1, r2, r4, r5, pc}
 8001430:	48000400 	.word	0x48000400
 8001434:	20000214 	.word	0x20000214

08001438 <ssd1306_WriteData>:
 8001438:	b570      	push	{r4, r5, r6, lr}
 800143a:	4e0d      	ldr	r6, [pc, #52]	@ (8001470 <ssd1306_WriteData+0x38>)
 800143c:	0005      	movs	r5, r0
 800143e:	0030      	movs	r0, r6
 8001440:	000c      	movs	r4, r1
 8001442:	2200      	movs	r2, #0
 8001444:	2104      	movs	r1, #4
 8001446:	f001 f9a7 	bl	8002798 <HAL_GPIO_WritePin>
 800144a:	0030      	movs	r0, r6
 800144c:	2201      	movs	r2, #1
 800144e:	2102      	movs	r1, #2
 8001450:	f001 f9a2 	bl	8002798 <HAL_GPIO_WritePin>
 8001454:	2301      	movs	r3, #1
 8001456:	0029      	movs	r1, r5
 8001458:	b2a2      	uxth	r2, r4
 800145a:	425b      	negs	r3, r3
 800145c:	4805      	ldr	r0, [pc, #20]	@ (8001474 <ssd1306_WriteData+0x3c>)
 800145e:	f002 f8f3 	bl	8003648 <HAL_SPI_Transmit>
 8001462:	0030      	movs	r0, r6
 8001464:	2201      	movs	r2, #1
 8001466:	2104      	movs	r1, #4
 8001468:	f001 f996 	bl	8002798 <HAL_GPIO_WritePin>
 800146c:	bd70      	pop	{r4, r5, r6, pc}
 800146e:	46c0      	nop			@ (mov r8, r8)
 8001470:	48000400 	.word	0x48000400
 8001474:	20000214 	.word	0x20000214

08001478 <ssd1306_Fill>:
 8001478:	1e42      	subs	r2, r0, #1
 800147a:	4190      	sbcs	r0, r2
 800147c:	2280      	movs	r2, #128	@ 0x80
 800147e:	2300      	movs	r3, #0
 8001480:	4903      	ldr	r1, [pc, #12]	@ (8001490 <ssd1306_Fill+0x18>)
 8001482:	4240      	negs	r0, r0
 8001484:	00d2      	lsls	r2, r2, #3
 8001486:	54c8      	strb	r0, [r1, r3]
 8001488:	3301      	adds	r3, #1
 800148a:	4293      	cmp	r3, r2
 800148c:	d1fb      	bne.n	8001486 <ssd1306_Fill+0xe>
 800148e:	4770      	bx	lr
 8001490:	200003a6 	.word	0x200003a6

08001494 <ssd1306_UpdateScreen>:
 8001494:	b570      	push	{r4, r5, r6, lr}
 8001496:	24b0      	movs	r4, #176	@ 0xb0
 8001498:	4d09      	ldr	r5, [pc, #36]	@ (80014c0 <ssd1306_UpdateScreen+0x2c>)
 800149a:	0020      	movs	r0, r4
 800149c:	f7ff ffac 	bl	80013f8 <ssd1306_WriteCommand>
 80014a0:	2000      	movs	r0, #0
 80014a2:	f7ff ffa9 	bl	80013f8 <ssd1306_WriteCommand>
 80014a6:	3401      	adds	r4, #1
 80014a8:	2010      	movs	r0, #16
 80014aa:	f7ff ffa5 	bl	80013f8 <ssd1306_WriteCommand>
 80014ae:	b2e4      	uxtb	r4, r4
 80014b0:	0028      	movs	r0, r5
 80014b2:	2180      	movs	r1, #128	@ 0x80
 80014b4:	f7ff ffc0 	bl	8001438 <ssd1306_WriteData>
 80014b8:	3580      	adds	r5, #128	@ 0x80
 80014ba:	2cb8      	cmp	r4, #184	@ 0xb8
 80014bc:	d1ed      	bne.n	800149a <ssd1306_UpdateScreen+0x6>
 80014be:	bd70      	pop	{r4, r5, r6, pc}
 80014c0:	200003a6 	.word	0x200003a6

080014c4 <ssd1306_DrawPixel>:
 80014c4:	b243      	sxtb	r3, r0
 80014c6:	b530      	push	{r4, r5, lr}
 80014c8:	2b00      	cmp	r3, #0
 80014ca:	db12      	blt.n	80014f2 <ssd1306_DrawPixel+0x2e>
 80014cc:	293f      	cmp	r1, #63	@ 0x3f
 80014ce:	d810      	bhi.n	80014f2 <ssd1306_DrawPixel+0x2e>
 80014d0:	4b0e      	ldr	r3, [pc, #56]	@ (800150c <ssd1306_DrawPixel+0x48>)
 80014d2:	4c0f      	ldr	r4, [pc, #60]	@ (8001510 <ssd1306_DrawPixel+0x4c>)
 80014d4:	791d      	ldrb	r5, [r3, #4]
 80014d6:	08cb      	lsrs	r3, r1, #3
 80014d8:	2d00      	cmp	r5, #0
 80014da:	d00b      	beq.n	80014f4 <ssd1306_DrawPixel+0x30>
 80014dc:	2a00      	cmp	r2, #0
 80014de:	d10b      	bne.n	80014f8 <ssd1306_DrawPixel+0x34>
 80014e0:	01db      	lsls	r3, r3, #7
 80014e2:	2207      	movs	r2, #7
 80014e4:	1818      	adds	r0, r3, r0
 80014e6:	2301      	movs	r3, #1
 80014e8:	400a      	ands	r2, r1
 80014ea:	4093      	lsls	r3, r2
 80014ec:	5c22      	ldrb	r2, [r4, r0]
 80014ee:	4313      	orrs	r3, r2
 80014f0:	5423      	strb	r3, [r4, r0]
 80014f2:	bd30      	pop	{r4, r5, pc}
 80014f4:	2a01      	cmp	r2, #1
 80014f6:	d0f3      	beq.n	80014e0 <ssd1306_DrawPixel+0x1c>
 80014f8:	01db      	lsls	r3, r3, #7
 80014fa:	1818      	adds	r0, r3, r0
 80014fc:	2307      	movs	r3, #7
 80014fe:	2201      	movs	r2, #1
 8001500:	4019      	ands	r1, r3
 8001502:	408a      	lsls	r2, r1
 8001504:	5c23      	ldrb	r3, [r4, r0]
 8001506:	4393      	bics	r3, r2
 8001508:	e7f2      	b.n	80014f0 <ssd1306_DrawPixel+0x2c>
 800150a:	46c0      	nop			@ (mov r8, r8)
 800150c:	2000039e 	.word	0x2000039e
 8001510:	200003a6 	.word	0x200003a6

08001514 <ssd1306_WriteChar>:
 8001514:	b5f0      	push	{r4, r5, r6, r7, lr}
 8001516:	0004      	movs	r4, r0
 8001518:	b089      	sub	sp, #36	@ 0x24
 800151a:	3c20      	subs	r4, #32
 800151c:	9304      	str	r3, [sp, #16]
 800151e:	b2e3      	uxtb	r3, r4
 8001520:	0005      	movs	r5, r0
 8001522:	9106      	str	r1, [sp, #24]
 8001524:	9207      	str	r2, [sp, #28]
 8001526:	2b5e      	cmp	r3, #94	@ 0x5e
 8001528:	d840      	bhi.n	80015ac <ssd1306_WriteChar+0x98>
 800152a:	ab06      	add	r3, sp, #24
 800152c:	781b      	ldrb	r3, [r3, #0]
 800152e:	9301      	str	r3, [sp, #4]
 8001530:	4b1f      	ldr	r3, [pc, #124]	@ (80015b0 <ssd1306_WriteChar+0x9c>)
 8001532:	9901      	ldr	r1, [sp, #4]
 8001534:	881a      	ldrh	r2, [r3, #0]
 8001536:	9200      	str	r2, [sp, #0]
 8001538:	1852      	adds	r2, r2, r1
 800153a:	2a80      	cmp	r2, #128	@ 0x80
 800153c:	dc36      	bgt.n	80015ac <ssd1306_WriteChar+0x98>
 800153e:	aa06      	add	r2, sp, #24
 8001540:	7852      	ldrb	r2, [r2, #1]
 8001542:	9202      	str	r2, [sp, #8]
 8001544:	885b      	ldrh	r3, [r3, #2]
 8001546:	9303      	str	r3, [sp, #12]
 8001548:	189b      	adds	r3, r3, r2
 800154a:	2b40      	cmp	r3, #64	@ 0x40
 800154c:	dc2e      	bgt.n	80015ac <ssd1306_WriteChar+0x98>
 800154e:	2700      	movs	r7, #0
 8001550:	4354      	muls	r4, r2
 8001552:	0064      	lsls	r4, r4, #1
 8001554:	9b02      	ldr	r3, [sp, #8]
 8001556:	42bb      	cmp	r3, r7
 8001558:	d808      	bhi.n	800156c <ssd1306_WriteChar+0x58>
 800155a:	9900      	ldr	r1, [sp, #0]
 800155c:	9b01      	ldr	r3, [sp, #4]
 800155e:	468c      	mov	ip, r1
 8001560:	4a13      	ldr	r2, [pc, #76]	@ (80015b0 <ssd1306_WriteChar+0x9c>)
 8001562:	4463      	add	r3, ip
 8001564:	8013      	strh	r3, [r2, #0]
 8001566:	0028      	movs	r0, r5
 8001568:	b009      	add	sp, #36	@ 0x24
 800156a:	bdf0      	pop	{r4, r5, r6, r7, pc}
 800156c:	2600      	movs	r6, #0
 800156e:	9b07      	ldr	r3, [sp, #28]
 8001570:	5b1b      	ldrh	r3, [r3, r4]
 8001572:	9305      	str	r3, [sp, #20]
 8001574:	9b01      	ldr	r3, [sp, #4]
 8001576:	42b3      	cmp	r3, r6
 8001578:	d802      	bhi.n	8001580 <ssd1306_WriteChar+0x6c>
 800157a:	3701      	adds	r7, #1
 800157c:	3402      	adds	r4, #2
 800157e:	e7e9      	b.n	8001554 <ssd1306_WriteChar+0x40>
 8001580:	9b00      	ldr	r3, [sp, #0]
 8001582:	2280      	movs	r2, #128	@ 0x80
 8001584:	18f0      	adds	r0, r6, r3
 8001586:	9b03      	ldr	r3, [sp, #12]
 8001588:	0212      	lsls	r2, r2, #8
 800158a:	18f9      	adds	r1, r7, r3
 800158c:	9b05      	ldr	r3, [sp, #20]
 800158e:	b2c0      	uxtb	r0, r0
 8001590:	40b3      	lsls	r3, r6
 8001592:	b2c9      	uxtb	r1, r1
 8001594:	4213      	tst	r3, r2
 8001596:	d004      	beq.n	80015a2 <ssd1306_WriteChar+0x8e>
 8001598:	9a04      	ldr	r2, [sp, #16]
 800159a:	f7ff ff93 	bl	80014c4 <ssd1306_DrawPixel>
 800159e:	3601      	adds	r6, #1
 80015a0:	e7e8      	b.n	8001574 <ssd1306_WriteChar+0x60>
 80015a2:	9b04      	ldr	r3, [sp, #16]
 80015a4:	425a      	negs	r2, r3
 80015a6:	415a      	adcs	r2, r3
 80015a8:	b2d2      	uxtb	r2, r2
 80015aa:	e7f6      	b.n	800159a <ssd1306_WriteChar+0x86>
 80015ac:	2500      	movs	r5, #0
 80015ae:	e7da      	b.n	8001566 <ssd1306_WriteChar+0x52>
 80015b0:	2000039e 	.word	0x2000039e

080015b4 <ssd1306_WriteString>:
 80015b4:	b537      	push	{r0, r1, r2, r4, r5, lr}
 80015b6:	0004      	movs	r4, r0
 80015b8:	001d      	movs	r5, r3
 80015ba:	9100      	str	r1, [sp, #0]
 80015bc:	9201      	str	r2, [sp, #4]
 80015be:	7820      	ldrb	r0, [r4, #0]
 80015c0:	2800      	cmp	r0, #0
 80015c2:	d100      	bne.n	80015c6 <ssd1306_WriteString+0x12>
 80015c4:	bd3e      	pop	{r1, r2, r3, r4, r5, pc}
 80015c6:	002b      	movs	r3, r5
 80015c8:	9900      	ldr	r1, [sp, #0]
 80015ca:	9a01      	ldr	r2, [sp, #4]
 80015cc:	f7ff ffa2 	bl	8001514 <ssd1306_WriteChar>
 80015d0:	0003      	movs	r3, r0
 80015d2:	7820      	ldrb	r0, [r4, #0]
 80015d4:	4283      	cmp	r3, r0
 80015d6:	d1f5      	bne.n	80015c4 <ssd1306_WriteString+0x10>
 80015d8:	3401      	adds	r4, #1
 80015da:	e7f0      	b.n	80015be <ssd1306_WriteString+0xa>

080015dc <ssd1306_SetCursor>:
 80015dc:	4b01      	ldr	r3, [pc, #4]	@ (80015e4 <ssd1306_SetCursor+0x8>)
 80015de:	8018      	strh	r0, [r3, #0]
 80015e0:	8059      	strh	r1, [r3, #2]
 80015e2:	4770      	bx	lr
 80015e4:	2000039e 	.word	0x2000039e

080015e8 <ssd1306_Line>:
 80015e8:	b5f0      	push	{r4, r5, r6, r7, lr}
 80015ea:	b087      	sub	sp, #28
 80015ec:	9300      	str	r3, [sp, #0]
 80015ee:	ab0c      	add	r3, sp, #48	@ 0x30
 80015f0:	781b      	ldrb	r3, [r3, #0]
 80015f2:	0016      	movs	r6, r2
 80015f4:	9305      	str	r3, [sp, #20]
 80015f6:	1a13      	subs	r3, r2, r0
 80015f8:	17da      	asrs	r2, r3, #31
 80015fa:	189b      	adds	r3, r3, r2
 80015fc:	4053      	eors	r3, r2
 80015fe:	9301      	str	r3, [sp, #4]
 8001600:	9b00      	ldr	r3, [sp, #0]
 8001602:	0005      	movs	r5, r0
 8001604:	1a5b      	subs	r3, r3, r1
 8001606:	17da      	asrs	r2, r3, #31
 8001608:	189b      	adds	r3, r3, r2
 800160a:	4053      	eors	r3, r2
 800160c:	9302      	str	r3, [sp, #8]
 800160e:	2301      	movs	r3, #1
 8001610:	000c      	movs	r4, r1
 8001612:	9303      	str	r3, [sp, #12]
 8001614:	4286      	cmp	r6, r0
 8001616:	d801      	bhi.n	800161c <ssd1306_Line+0x34>
 8001618:	3b02      	subs	r3, #2
 800161a:	9303      	str	r3, [sp, #12]
 800161c:	2301      	movs	r3, #1
 800161e:	9304      	str	r3, [sp, #16]
 8001620:	9b00      	ldr	r3, [sp, #0]
 8001622:	42a3      	cmp	r3, r4
 8001624:	d802      	bhi.n	800162c <ssd1306_Line+0x44>
 8001626:	2301      	movs	r3, #1
 8001628:	425b      	negs	r3, r3
 800162a:	9304      	str	r3, [sp, #16]
 800162c:	9a02      	ldr	r2, [sp, #8]
 800162e:	9b01      	ldr	r3, [sp, #4]
 8001630:	0030      	movs	r0, r6
 8001632:	1a9f      	subs	r7, r3, r2
 8001634:	9900      	ldr	r1, [sp, #0]
 8001636:	9a05      	ldr	r2, [sp, #20]
 8001638:	f7ff ff44 	bl	80014c4 <ssd1306_DrawPixel>
 800163c:	42b5      	cmp	r5, r6
 800163e:	d104      	bne.n	800164a <ssd1306_Line+0x62>
 8001640:	9b00      	ldr	r3, [sp, #0]
 8001642:	429c      	cmp	r4, r3
 8001644:	d101      	bne.n	800164a <ssd1306_Line+0x62>
 8001646:	b007      	add	sp, #28
 8001648:	bdf0      	pop	{r4, r5, r6, r7, pc}
 800164a:	9a05      	ldr	r2, [sp, #20]
 800164c:	0021      	movs	r1, r4
 800164e:	0028      	movs	r0, r5
 8001650:	f7ff ff38 	bl	80014c4 <ssd1306_DrawPixel>
 8001654:	9a02      	ldr	r2, [sp, #8]
 8001656:	007b      	lsls	r3, r7, #1
 8001658:	4252      	negs	r2, r2
 800165a:	429a      	cmp	r2, r3
 800165c:	da04      	bge.n	8001668 <ssd1306_Line+0x80>
 800165e:	9a02      	ldr	r2, [sp, #8]
 8001660:	1abf      	subs	r7, r7, r2
 8001662:	9a03      	ldr	r2, [sp, #12]
 8001664:	18ad      	adds	r5, r5, r2
 8001666:	b2ed      	uxtb	r5, r5
 8001668:	9a01      	ldr	r2, [sp, #4]
 800166a:	429a      	cmp	r2, r3
 800166c:	dde6      	ble.n	800163c <ssd1306_Line+0x54>
 800166e:	9b04      	ldr	r3, [sp, #16]
 8001670:	18bf      	adds	r7, r7, r2
 8001672:	18e4      	adds	r4, r4, r3
 8001674:	b2e4      	uxtb	r4, r4
 8001676:	e7e1      	b.n	800163c <ssd1306_Line+0x54>

08001678 <ssd1306_DrawRectangle>:
 8001678:	b5f0      	push	{r4, r5, r6, r7, lr}
 800167a:	001c      	movs	r4, r3
 800167c:	0016      	movs	r6, r2
 800167e:	000d      	movs	r5, r1
 8001680:	b085      	sub	sp, #20
 8001682:	ab0a      	add	r3, sp, #40	@ 0x28
 8001684:	781f      	ldrb	r7, [r3, #0]
 8001686:	000b      	movs	r3, r1
 8001688:	9700      	str	r7, [sp, #0]
 800168a:	9003      	str	r0, [sp, #12]
 800168c:	f7ff ffac 	bl	80015e8 <ssd1306_Line>
 8001690:	0023      	movs	r3, r4
 8001692:	0032      	movs	r2, r6
 8001694:	0029      	movs	r1, r5
 8001696:	0030      	movs	r0, r6
 8001698:	9700      	str	r7, [sp, #0]
 800169a:	f7ff ffa5 	bl	80015e8 <ssd1306_Line>
 800169e:	0023      	movs	r3, r4
 80016a0:	0021      	movs	r1, r4
 80016a2:	0030      	movs	r0, r6
 80016a4:	9a03      	ldr	r2, [sp, #12]
 80016a6:	9700      	str	r7, [sp, #0]
 80016a8:	f7ff ff9e 	bl	80015e8 <ssd1306_Line>
 80016ac:	9a03      	ldr	r2, [sp, #12]
 80016ae:	002b      	movs	r3, r5
 80016b0:	0021      	movs	r1, r4
 80016b2:	0010      	movs	r0, r2
 80016b4:	9700      	str	r7, [sp, #0]
 80016b6:	f7ff ff97 	bl	80015e8 <ssd1306_Line>
 80016ba:	b005      	add	sp, #20
 80016bc:	bdf0      	pop	{r4, r5, r6, r7, pc}

080016be <ssd1306_DrawFilledRectangle>:
 80016be:	b5f0      	push	{r4, r5, r6, r7, lr}
 80016c0:	000c      	movs	r4, r1
 80016c2:	0016      	movs	r6, r2
 80016c4:	b085      	sub	sp, #20
 80016c6:	001d      	movs	r5, r3
 80016c8:	ab0a      	add	r3, sp, #40	@ 0x28
 80016ca:	781f      	ldrb	r7, [r3, #0]
 80016cc:	9003      	str	r0, [sp, #12]
 80016ce:	42ac      	cmp	r4, r5
 80016d0:	d901      	bls.n	80016d6 <ssd1306_DrawFilledRectangle+0x18>
 80016d2:	b005      	add	sp, #20
 80016d4:	bdf0      	pop	{r4, r5, r6, r7, pc}
 80016d6:	0023      	movs	r3, r4
 80016d8:	0021      	movs	r1, r4
 80016da:	0032      	movs	r2, r6
 80016dc:	9803      	ldr	r0, [sp, #12]
 80016de:	9700      	str	r7, [sp, #0]
 80016e0:	3401      	adds	r4, #1
 80016e2:	f7ff ff81 	bl	80015e8 <ssd1306_Line>
 80016e6:	b2e4      	uxtb	r4, r4
 80016e8:	e7f1      	b.n	80016ce <ssd1306_DrawFilledRectangle+0x10>

080016ea <ssd1306_SetContrast>:
 80016ea:	b510      	push	{r4, lr}
 80016ec:	0004      	movs	r4, r0
 80016ee:	2081      	movs	r0, #129	@ 0x81
 80016f0:	f7ff fe82 	bl	80013f8 <ssd1306_WriteCommand>
 80016f4:	0020      	movs	r0, r4
 80016f6:	f7ff fe7f 	bl	80013f8 <ssd1306_WriteCommand>
 80016fa:	bd10      	pop	{r4, pc}

080016fc <ssd1306_SetDisplayOn>:
 80016fc:	0003      	movs	r3, r0
 80016fe:	b510      	push	{r4, lr}
 8001700:	20ae      	movs	r0, #174	@ 0xae
 8001702:	2b00      	cmp	r3, #0
 8001704:	d001      	beq.n	800170a <ssd1306_SetDisplayOn+0xe>
 8001706:	2301      	movs	r3, #1
 8001708:	18c0      	adds	r0, r0, r3
 800170a:	4a02      	ldr	r2, [pc, #8]	@ (8001714 <ssd1306_SetDisplayOn+0x18>)
 800170c:	7193      	strb	r3, [r2, #6]
 800170e:	f7ff fe73 	bl	80013f8 <ssd1306_WriteCommand>
 8001712:	bd10      	pop	{r4, pc}
 8001714:	2000039e 	.word	0x2000039e

08001718 <ssd1306_Init>:
 8001718:	b510      	push	{r4, lr}
 800171a:	f7ff fe53 	bl	80013c4 <ssd1306_Reset>
 800171e:	2064      	movs	r0, #100	@ 0x64
 8001720:	f000 fbf8 	bl	8001f14 <HAL_Delay>
 8001724:	2000      	movs	r0, #0
 8001726:	f7ff ffe9 	bl	80016fc <ssd1306_SetDisplayOn>
 800172a:	2020      	movs	r0, #32
 800172c:	f7ff fe64 	bl	80013f8 <ssd1306_WriteCommand>
 8001730:	2000      	movs	r0, #0
 8001732:	f7ff fe61 	bl	80013f8 <ssd1306_WriteCommand>
 8001736:	20b0      	movs	r0, #176	@ 0xb0
 8001738:	f7ff fe5e 	bl	80013f8 <ssd1306_WriteCommand>
 800173c:	20c8      	movs	r0, #200	@ 0xc8
 800173e:	f7ff fe5b 	bl	80013f8 <ssd1306_WriteCommand>
 8001742:	2000      	movs	r0, #0
 8001744:	f7ff fe58 	bl	80013f8 <ssd1306_WriteCommand>
 8001748:	2010      	movs	r0, #16
 800174a:	f7ff fe55 	bl	80013f8 <ssd1306_WriteCommand>
 800174e:	2040      	movs	r0, #64	@ 0x40
 8001750:	f7ff fe52 	bl	80013f8 <ssd1306_WriteCommand>
 8001754:	20ff      	movs	r0, #255	@ 0xff
 8001756:	f7ff ffc8 	bl	80016ea <ssd1306_SetContrast>
 800175a:	20a1      	movs	r0, #161	@ 0xa1
 800175c:	f7ff fe4c 	bl	80013f8 <ssd1306_WriteCommand>
 8001760:	20a6      	movs	r0, #166	@ 0xa6
 8001762:	f7ff fe49 	bl	80013f8 <ssd1306_WriteCommand>
 8001766:	20a8      	movs	r0, #168	@ 0xa8
 8001768:	f7ff fe46 	bl	80013f8 <ssd1306_WriteCommand>
 800176c:	203f      	movs	r0, #63	@ 0x3f
 800176e:	f7ff fe43 	bl	80013f8 <ssd1306_WriteCommand>
 8001772:	20a4      	movs	r0, #164	@ 0xa4
 8001774:	f7ff fe40 	bl	80013f8 <ssd1306_WriteCommand>
 8001778:	20d3      	movs	r0, #211	@ 0xd3
 800177a:	f7ff fe3d 	bl	80013f8 <ssd1306_WriteCommand>
 800177e:	2000      	movs	r0, #0
 8001780:	f7ff fe3a 	bl	80013f8 <ssd1306_WriteCommand>
 8001784:	20d5      	movs	r0, #213	@ 0xd5
 8001786:	f7ff fe37 	bl	80013f8 <ssd1306_WriteCommand>
 800178a:	20f0      	movs	r0, #240	@ 0xf0
 800178c:	f7ff fe34 	bl	80013f8 <ssd1306_WriteCommand>
 8001790:	20d9      	movs	r0, #217	@ 0xd9
 8001792:	f7ff fe31 	bl	80013f8 <ssd1306_WriteCommand>
 8001796:	2022      	movs	r0, #34	@ 0x22
 8001798:	f7ff fe2e 	bl	80013f8 <ssd1306_WriteCommand>
 800179c:	20da      	movs	r0, #218	@ 0xda
 800179e:	f7ff fe2b 	bl	80013f8 <ssd1306_WriteCommand>
 80017a2:	2012      	movs	r0, #18
 80017a4:	f7ff fe28 	bl	80013f8 <ssd1306_WriteCommand>
 80017a8:	20db      	movs	r0, #219	@ 0xdb
 80017aa:	f7ff fe25 	bl	80013f8 <ssd1306_WriteCommand>
 80017ae:	2020      	movs	r0, #32
 80017b0:	f7ff fe22 	bl	80013f8 <ssd1306_WriteCommand>
 80017b4:	208d      	movs	r0, #141	@ 0x8d
 80017b6:	f7ff fe1f 	bl	80013f8 <ssd1306_WriteCommand>
 80017ba:	2014      	movs	r0, #20
 80017bc:	f7ff fe1c 	bl	80013f8 <ssd1306_WriteCommand>
 80017c0:	2001      	movs	r0, #1
 80017c2:	f7ff ff9b 	bl	80016fc <ssd1306_SetDisplayOn>
 80017c6:	2000      	movs	r0, #0
 80017c8:	f7ff fe56 	bl	8001478 <ssd1306_Fill>
 80017cc:	f7ff fe62 	bl	8001494 <ssd1306_UpdateScreen>
 80017d0:	2200      	movs	r2, #0
 80017d2:	4b03      	ldr	r3, [pc, #12]	@ (80017e0 <ssd1306_Init+0xc8>)
 80017d4:	801a      	strh	r2, [r3, #0]
 80017d6:	805a      	strh	r2, [r3, #2]
 80017d8:	3201      	adds	r2, #1
 80017da:	715a      	strb	r2, [r3, #5]
 80017dc:	bd10      	pop	{r4, pc}
 80017de:	46c0      	nop			@ (mov r8, r8)
 80017e0:	2000039e 	.word	0x2000039e

080017e4 <HAL_MspInit>:
 80017e4:	2101      	movs	r1, #1
 80017e6:	4b0a      	ldr	r3, [pc, #40]	@ (8001810 <HAL_MspInit+0x2c>)
 80017e8:	b082      	sub	sp, #8
 80017ea:	699a      	ldr	r2, [r3, #24]
 80017ec:	430a      	orrs	r2, r1
 80017ee:	619a      	str	r2, [r3, #24]
 80017f0:	699a      	ldr	r2, [r3, #24]
 80017f2:	400a      	ands	r2, r1
 80017f4:	2180      	movs	r1, #128	@ 0x80
 80017f6:	9200      	str	r2, [sp, #0]
 80017f8:	9a00      	ldr	r2, [sp, #0]
 80017fa:	69da      	ldr	r2, [r3, #28]
 80017fc:	0549      	lsls	r1, r1, #21
 80017fe:	430a      	orrs	r2, r1
 8001800:	61da      	str	r2, [r3, #28]
 8001802:	69db      	ldr	r3, [r3, #28]
 8001804:	400b      	ands	r3, r1
 8001806:	9301      	str	r3, [sp, #4]
 8001808:	9b01      	ldr	r3, [sp, #4]
 800180a:	b002      	add	sp, #8
 800180c:	4770      	bx	lr
 800180e:	46c0      	nop			@ (mov r8, r8)
 8001810:	40021000 	.word	0x40021000

08001814 <HAL_ADC_MspInit>:
 8001814:	b530      	push	{r4, r5, lr}
 8001816:	0005      	movs	r5, r0
 8001818:	b089      	sub	sp, #36	@ 0x24
 800181a:	2214      	movs	r2, #20
 800181c:	2100      	movs	r1, #0
 800181e:	a803      	add	r0, sp, #12
 8001820:	f002 fa58 	bl	8003cd4 <memset>
 8001824:	4b1c      	ldr	r3, [pc, #112]	@ (8001898 <HAL_ADC_MspInit+0x84>)
 8001826:	682a      	ldr	r2, [r5, #0]
 8001828:	429a      	cmp	r2, r3
 800182a:	d133      	bne.n	8001894 <HAL_ADC_MspInit+0x80>
 800182c:	2180      	movs	r1, #128	@ 0x80
 800182e:	4b1b      	ldr	r3, [pc, #108]	@ (800189c <HAL_ADC_MspInit+0x88>)
 8001830:	0089      	lsls	r1, r1, #2
 8001832:	699a      	ldr	r2, [r3, #24]
 8001834:	2090      	movs	r0, #144	@ 0x90
 8001836:	430a      	orrs	r2, r1
 8001838:	619a      	str	r2, [r3, #24]
 800183a:	699a      	ldr	r2, [r3, #24]
 800183c:	05c0      	lsls	r0, r0, #23
 800183e:	400a      	ands	r2, r1
 8001840:	2180      	movs	r1, #128	@ 0x80
 8001842:	9201      	str	r2, [sp, #4]
 8001844:	9a01      	ldr	r2, [sp, #4]
 8001846:	695a      	ldr	r2, [r3, #20]
 8001848:	0289      	lsls	r1, r1, #10
 800184a:	430a      	orrs	r2, r1
 800184c:	615a      	str	r2, [r3, #20]
 800184e:	695b      	ldr	r3, [r3, #20]
 8001850:	400b      	ands	r3, r1
 8001852:	9302      	str	r3, [sp, #8]
 8001854:	9b02      	ldr	r3, [sp, #8]
 8001856:	2301      	movs	r3, #1
 8001858:	a903      	add	r1, sp, #12
 800185a:	9303      	str	r3, [sp, #12]
 800185c:	3302      	adds	r3, #2
 800185e:	9304      	str	r3, [sp, #16]
 8001860:	f000 fed6 	bl	8002610 <HAL_GPIO_Init>
 8001864:	2280      	movs	r2, #128	@ 0x80
 8001866:	4c0e      	ldr	r4, [pc, #56]	@ (80018a0 <HAL_ADC_MspInit+0x8c>)
 8001868:	4b0e      	ldr	r3, [pc, #56]	@ (80018a4 <HAL_ADC_MspInit+0x90>)
 800186a:	60e2      	str	r2, [r4, #12]
 800186c:	1892      	adds	r2, r2, r2
 800186e:	6122      	str	r2, [r4, #16]
 8001870:	2280      	movs	r2, #128	@ 0x80
 8001872:	6023      	str	r3, [r4, #0]
 8001874:	2300      	movs	r3, #0
 8001876:	00d2      	lsls	r2, r2, #3
 8001878:	0020      	movs	r0, r4
 800187a:	6063      	str	r3, [r4, #4]
 800187c:	60a3      	str	r3, [r4, #8]
 800187e:	6162      	str	r2, [r4, #20]
 8001880:	61a3      	str	r3, [r4, #24]
 8001882:	61e3      	str	r3, [r4, #28]
 8001884:	f000 fe0c 	bl	80024a0 <HAL_DMA_Init>
 8001888:	2800      	cmp	r0, #0
 800188a:	d001      	beq.n	8001890 <HAL_ADC_MspInit+0x7c>
 800188c:	f7ff fc5c 	bl	8001148 <Error_Handler>
 8001890:	632c      	str	r4, [r5, #48]	@ 0x30
 8001892:	6265      	str	r5, [r4, #36]	@ 0x24
 8001894:	b009      	add	sp, #36	@ 0x24
 8001896:	bd30      	pop	{r4, r5, pc}
 8001898:	40012400 	.word	0x40012400
 800189c:	40021000 	.word	0x40021000
 80018a0:	200002c4 	.word	0x200002c4
 80018a4:	40020008 	.word	0x40020008

080018a8 <HAL_I2C_MspInit>:
 80018a8:	b510      	push	{r4, lr}
 80018aa:	0004      	movs	r4, r0
 80018ac:	b088      	sub	sp, #32
 80018ae:	2214      	movs	r2, #20
 80018b0:	2100      	movs	r1, #0
 80018b2:	a803      	add	r0, sp, #12
 80018b4:	f002 fa0e 	bl	8003cd4 <memset>
 80018b8:	4b13      	ldr	r3, [pc, #76]	@ (8001908 <HAL_I2C_MspInit+0x60>)
 80018ba:	6822      	ldr	r2, [r4, #0]
 80018bc:	429a      	cmp	r2, r3
 80018be:	d120      	bne.n	8001902 <HAL_I2C_MspInit+0x5a>
 80018c0:	2280      	movs	r2, #128	@ 0x80
 80018c2:	4c12      	ldr	r4, [pc, #72]	@ (800190c <HAL_I2C_MspInit+0x64>)
 80018c4:	02d2      	lsls	r2, r2, #11
 80018c6:	6963      	ldr	r3, [r4, #20]
 80018c8:	4811      	ldr	r0, [pc, #68]	@ (8001910 <HAL_I2C_MspInit+0x68>)
 80018ca:	4313      	orrs	r3, r2
 80018cc:	6163      	str	r3, [r4, #20]
 80018ce:	6963      	ldr	r3, [r4, #20]
 80018d0:	a903      	add	r1, sp, #12
 80018d2:	4013      	ands	r3, r2
 80018d4:	9301      	str	r3, [sp, #4]
 80018d6:	9b01      	ldr	r3, [sp, #4]
 80018d8:	23c0      	movs	r3, #192	@ 0xc0
 80018da:	005b      	lsls	r3, r3, #1
 80018dc:	9303      	str	r3, [sp, #12]
 80018de:	3b6f      	subs	r3, #111	@ 0x6f
 80018e0:	3bff      	subs	r3, #255	@ 0xff
 80018e2:	9304      	str	r3, [sp, #16]
 80018e4:	3b0f      	subs	r3, #15
 80018e6:	9306      	str	r3, [sp, #24]
 80018e8:	3b02      	subs	r3, #2
 80018ea:	9307      	str	r3, [sp, #28]
 80018ec:	f000 fe90 	bl	8002610 <HAL_GPIO_Init>
 80018f0:	2280      	movs	r2, #128	@ 0x80
 80018f2:	69e3      	ldr	r3, [r4, #28]
 80018f4:	0392      	lsls	r2, r2, #14
 80018f6:	4313      	orrs	r3, r2
 80018f8:	61e3      	str	r3, [r4, #28]
 80018fa:	69e3      	ldr	r3, [r4, #28]
 80018fc:	4013      	ands	r3, r2
 80018fe:	9302      	str	r3, [sp, #8]
 8001900:	9b02      	ldr	r3, [sp, #8]
 8001902:	b008      	add	sp, #32
 8001904:	bd10      	pop	{r4, pc}
 8001906:	46c0      	nop			@ (mov r8, r8)
 8001908:	40005400 	.word	0x40005400
 800190c:	40021000 	.word	0x40021000
 8001910:	48000400 	.word	0x48000400

08001914 <HAL_SPI_MspInit>:
 8001914:	b510      	push	{r4, lr}
 8001916:	0004      	movs	r4, r0
 8001918:	b088      	sub	sp, #32
 800191a:	2214      	movs	r2, #20
 800191c:	2100      	movs	r1, #0
 800191e:	a803      	add	r0, sp, #12
 8001920:	f002 f9d8 	bl	8003cd4 <memset>
 8001924:	4b11      	ldr	r3, [pc, #68]	@ (800196c <HAL_SPI_MspInit+0x58>)
 8001926:	6822      	ldr	r2, [r4, #0]
 8001928:	429a      	cmp	r2, r3
 800192a:	d11d      	bne.n	8001968 <HAL_SPI_MspInit+0x54>
 800192c:	2180      	movs	r1, #128	@ 0x80
 800192e:	4b10      	ldr	r3, [pc, #64]	@ (8001970 <HAL_SPI_MspInit+0x5c>)
 8001930:	0149      	lsls	r1, r1, #5
 8001932:	699a      	ldr	r2, [r3, #24]
 8001934:	2090      	movs	r0, #144	@ 0x90
 8001936:	430a      	orrs	r2, r1
 8001938:	619a      	str	r2, [r3, #24]
 800193a:	699a      	ldr	r2, [r3, #24]
 800193c:	05c0      	lsls	r0, r0, #23
 800193e:	400a      	ands	r2, r1
 8001940:	2180      	movs	r1, #128	@ 0x80
 8001942:	9201      	str	r2, [sp, #4]
 8001944:	9a01      	ldr	r2, [sp, #4]
 8001946:	695a      	ldr	r2, [r3, #20]
 8001948:	0289      	lsls	r1, r1, #10
 800194a:	430a      	orrs	r2, r1
 800194c:	615a      	str	r2, [r3, #20]
 800194e:	695b      	ldr	r3, [r3, #20]
 8001950:	400b      	ands	r3, r1
 8001952:	9302      	str	r3, [sp, #8]
 8001954:	9b02      	ldr	r3, [sp, #8]
 8001956:	23a0      	movs	r3, #160	@ 0xa0
 8001958:	9303      	str	r3, [sp, #12]
 800195a:	3b9e      	subs	r3, #158	@ 0x9e
 800195c:	9304      	str	r3, [sp, #16]
 800195e:	a903      	add	r1, sp, #12
 8001960:	3301      	adds	r3, #1
 8001962:	9306      	str	r3, [sp, #24]
 8001964:	f000 fe54 	bl	8002610 <HAL_GPIO_Init>
 8001968:	b008      	add	sp, #32
 800196a:	bd10      	pop	{r4, pc}
 800196c:	40013000 	.word	0x40013000
 8001970:	40021000 	.word	0x40021000

08001974 <HAL_TIM_Encoder_MspInit>:
 8001974:	b510      	push	{r4, lr}
 8001976:	0004      	movs	r4, r0
 8001978:	b088      	sub	sp, #32
 800197a:	2214      	movs	r2, #20
 800197c:	2100      	movs	r1, #0
 800197e:	a803      	add	r0, sp, #12
 8001980:	f002 f9a8 	bl	8003cd4 <memset>
 8001984:	2380      	movs	r3, #128	@ 0x80
 8001986:	6822      	ldr	r2, [r4, #0]
 8001988:	05db      	lsls	r3, r3, #23
 800198a:	429a      	cmp	r2, r3
 800198c:	d130      	bne.n	80019f0 <HAL_TIM_Encoder_MspInit+0x7c>
 800198e:	2101      	movs	r1, #1
 8001990:	4b18      	ldr	r3, [pc, #96]	@ (80019f4 <HAL_TIM_Encoder_MspInit+0x80>)
 8001992:	2090      	movs	r0, #144	@ 0x90
 8001994:	69da      	ldr	r2, [r3, #28]
 8001996:	2402      	movs	r4, #2
 8001998:	430a      	orrs	r2, r1
 800199a:	61da      	str	r2, [r3, #28]
 800199c:	69da      	ldr	r2, [r3, #28]
 800199e:	05c0      	lsls	r0, r0, #23
 80019a0:	400a      	ands	r2, r1
 80019a2:	2180      	movs	r1, #128	@ 0x80
 80019a4:	9200      	str	r2, [sp, #0]
 80019a6:	9a00      	ldr	r2, [sp, #0]
 80019a8:	695a      	ldr	r2, [r3, #20]
 80019aa:	0289      	lsls	r1, r1, #10
 80019ac:	430a      	orrs	r2, r1
 80019ae:	615a      	str	r2, [r3, #20]
 80019b0:	695a      	ldr	r2, [r3, #20]
 80019b2:	400a      	ands	r2, r1
 80019b4:	2180      	movs	r1, #128	@ 0x80
 80019b6:	9201      	str	r2, [sp, #4]
 80019b8:	9a01      	ldr	r2, [sp, #4]
 80019ba:	695a      	ldr	r2, [r3, #20]
 80019bc:	02c9      	lsls	r1, r1, #11
 80019be:	430a      	orrs	r2, r1
 80019c0:	615a      	str	r2, [r3, #20]
 80019c2:	695b      	ldr	r3, [r3, #20]
 80019c4:	9404      	str	r4, [sp, #16]
 80019c6:	400b      	ands	r3, r1
 80019c8:	9302      	str	r3, [sp, #8]
 80019ca:	9b02      	ldr	r3, [sp, #8]
 80019cc:	2380      	movs	r3, #128	@ 0x80
 80019ce:	a903      	add	r1, sp, #12
 80019d0:	021b      	lsls	r3, r3, #8
 80019d2:	9303      	str	r3, [sp, #12]
 80019d4:	9407      	str	r4, [sp, #28]
 80019d6:	f000 fe1b 	bl	8002610 <HAL_GPIO_Init>
 80019da:	2308      	movs	r3, #8
 80019dc:	9303      	str	r3, [sp, #12]
 80019de:	2300      	movs	r3, #0
 80019e0:	4805      	ldr	r0, [pc, #20]	@ (80019f8 <HAL_TIM_Encoder_MspInit+0x84>)
 80019e2:	a903      	add	r1, sp, #12
 80019e4:	9404      	str	r4, [sp, #16]
 80019e6:	9305      	str	r3, [sp, #20]
 80019e8:	9306      	str	r3, [sp, #24]
 80019ea:	9407      	str	r4, [sp, #28]
 80019ec:	f000 fe10 	bl	8002610 <HAL_GPIO_Init>
 80019f0:	b008      	add	sp, #32
 80019f2:	bd10      	pop	{r4, pc}
 80019f4:	40021000 	.word	0x40021000
 80019f8:	48000400 	.word	0x48000400

080019fc <HAL_TIM_Base_MspInit>:
 80019fc:	b507      	push	{r0, r1, r2, lr}
 80019fe:	6803      	ldr	r3, [r0, #0]
 8001a00:	4a13      	ldr	r2, [pc, #76]	@ (8001a50 <HAL_TIM_Base_MspInit+0x54>)
 8001a02:	4293      	cmp	r3, r2
 8001a04:	d111      	bne.n	8001a2a <HAL_TIM_Base_MspInit+0x2e>
 8001a06:	2110      	movs	r1, #16
 8001a08:	4b12      	ldr	r3, [pc, #72]	@ (8001a54 <HAL_TIM_Base_MspInit+0x58>)
 8001a0a:	2011      	movs	r0, #17
 8001a0c:	69da      	ldr	r2, [r3, #28]
 8001a0e:	430a      	orrs	r2, r1
 8001a10:	61da      	str	r2, [r3, #28]
 8001a12:	2200      	movs	r2, #0
 8001a14:	69db      	ldr	r3, [r3, #28]
 8001a16:	400b      	ands	r3, r1
 8001a18:	9300      	str	r3, [sp, #0]
 8001a1a:	0011      	movs	r1, r2
 8001a1c:	9b00      	ldr	r3, [sp, #0]
 8001a1e:	f000 fcef 	bl	8002400 <HAL_NVIC_SetPriority>
 8001a22:	2011      	movs	r0, #17
 8001a24:	f000 fd16 	bl	8002454 <HAL_NVIC_EnableIRQ>
 8001a28:	bd07      	pop	{r0, r1, r2, pc}
 8001a2a:	4a0b      	ldr	r2, [pc, #44]	@ (8001a58 <HAL_TIM_Base_MspInit+0x5c>)
 8001a2c:	4293      	cmp	r3, r2
 8001a2e:	d1fb      	bne.n	8001a28 <HAL_TIM_Base_MspInit+0x2c>
 8001a30:	2120      	movs	r1, #32
 8001a32:	4b08      	ldr	r3, [pc, #32]	@ (8001a54 <HAL_TIM_Base_MspInit+0x58>)
 8001a34:	2012      	movs	r0, #18
 8001a36:	69da      	ldr	r2, [r3, #28]
 8001a38:	430a      	orrs	r2, r1
 8001a3a:	61da      	str	r2, [r3, #28]
 8001a3c:	2200      	movs	r2, #0
 8001a3e:	69db      	ldr	r3, [r3, #28]
 8001a40:	400b      	ands	r3, r1
 8001a42:	9301      	str	r3, [sp, #4]
 8001a44:	0011      	movs	r1, r2
 8001a46:	9b01      	ldr	r3, [sp, #4]
 8001a48:	f000 fcda 	bl	8002400 <HAL_NVIC_SetPriority>
 8001a4c:	2012      	movs	r0, #18
 8001a4e:	e7e9      	b.n	8001a24 <HAL_TIM_Base_MspInit+0x28>
 8001a50:	40001000 	.word	0x40001000
 8001a54:	40021000 	.word	0x40021000
 8001a58:	40001400 	.word	0x40001400

08001a5c <NMI_Handler>:
 8001a5c:	e7fe      	b.n	8001a5c <NMI_Handler>

08001a5e <HardFault_Handler>:
 8001a5e:	e7fe      	b.n	8001a5e <HardFault_Handler>

08001a60 <SVC_Handler>:
 8001a60:	4770      	bx	lr

08001a62 <PendSV_Handler>:
 8001a62:	4770      	bx	lr

08001a64 <SysTick_Handler>:
 8001a64:	b510      	push	{r4, lr}
 8001a66:	f000 fa43 	bl	8001ef0 <HAL_IncTick>
 8001a6a:	bd10      	pop	{r4, pc}

08001a6c <EXTI4_15_IRQHandler>:
 8001a6c:	b510      	push	{r4, lr}
 8001a6e:	2010      	movs	r0, #16
 8001a70:	f000 fe98 	bl	80027a4 <HAL_GPIO_EXTI_IRQHandler>
 8001a74:	bd10      	pop	{r4, pc}
	...

08001a78 <DMA1_Channel1_IRQHandler>:
 8001a78:	b510      	push	{r4, lr}
 8001a7a:	4802      	ldr	r0, [pc, #8]	@ (8001a84 <DMA1_Channel1_IRQHandler+0xc>)
 8001a7c:	f000 fd7e 	bl	800257c <HAL_DMA_IRQHandler>
 8001a80:	bd10      	pop	{r4, pc}
 8001a82:	46c0      	nop			@ (mov r8, r8)
 8001a84:	200002c4 	.word	0x200002c4

08001a88 <TIM6_DAC_IRQHandler>:
 8001a88:	b510      	push	{r4, lr}
 8001a8a:	4802      	ldr	r0, [pc, #8]	@ (8001a94 <TIM6_DAC_IRQHandler+0xc>)
 8001a8c:	f001 ff48 	bl	8003920 <HAL_TIM_IRQHandler>
 8001a90:	bd10      	pop	{r4, pc}
 8001a92:	46c0      	nop			@ (mov r8, r8)
 8001a94:	20000184 	.word	0x20000184

08001a98 <TIM7_IRQHandler>:
 8001a98:	b510      	push	{r4, lr}
 8001a9a:	4802      	ldr	r0, [pc, #8]	@ (8001aa4 <TIM7_IRQHandler+0xc>)
 8001a9c:	f001 ff40 	bl	8003920 <HAL_TIM_IRQHandler>
 8001aa0:	bd10      	pop	{r4, pc}
 8001aa2:	46c0      	nop			@ (mov r8, r8)
 8001aa4:	2000013c 	.word	0x2000013c

08001aa8 <_sbrk>:
 8001aa8:	490b      	ldr	r1, [pc, #44]	@ (8001ad8 <_sbrk+0x30>)
 8001aaa:	4a0c      	ldr	r2, [pc, #48]	@ (8001adc <_sbrk+0x34>)
 8001aac:	0003      	movs	r3, r0
 8001aae:	1a52      	subs	r2, r2, r1
 8001ab0:	490b      	ldr	r1, [pc, #44]	@ (8001ae0 <_sbrk+0x38>)
 8001ab2:	b510      	push	{r4, lr}
 8001ab4:	6808      	ldr	r0, [r1, #0]
 8001ab6:	2800      	cmp	r0, #0
 8001ab8:	d101      	bne.n	8001abe <_sbrk+0x16>
 8001aba:	480a      	ldr	r0, [pc, #40]	@ (8001ae4 <_sbrk+0x3c>)
 8001abc:	6008      	str	r0, [r1, #0]
 8001abe:	6808      	ldr	r0, [r1, #0]
 8001ac0:	18c3      	adds	r3, r0, r3
 8001ac2:	4293      	cmp	r3, r2
 8001ac4:	d906      	bls.n	8001ad4 <_sbrk+0x2c>
 8001ac6:	f002 f91b 	bl	8003d00 <__errno>
 8001aca:	230c      	movs	r3, #12
 8001acc:	6003      	str	r3, [r0, #0]
 8001ace:	2001      	movs	r0, #1
 8001ad0:	4240      	negs	r0, r0
 8001ad2:	bd10      	pop	{r4, pc}
 8001ad4:	600b      	str	r3, [r1, #0]
 8001ad6:	e7fc      	b.n	8001ad2 <_sbrk+0x2a>
 8001ad8:	00000400 	.word	0x00000400
 8001adc:	20004000 	.word	0x20004000
 8001ae0:	200007a8 	.word	0x200007a8
 8001ae4:	20000978 	.word	0x20000978

08001ae8 <SystemInit>:
 8001ae8:	4770      	bx	lr
	...

08001aec <HAL_GPIO_EXTI_Callback>:
 8001aec:	b510      	push	{r4, lr}
 8001aee:	2810      	cmp	r0, #16
 8001af0:	d107      	bne.n	8001b02 <HAL_GPIO_EXTI_Callback+0x16>
 8001af2:	4804      	ldr	r0, [pc, #16]	@ (8001b04 <HAL_GPIO_EXTI_Callback+0x18>)
 8001af4:	f001 fe66 	bl	80037c4 <HAL_TIM_Base_Start_IT>
 8001af8:	f000 fa06 	bl	8001f08 <HAL_GetTick>
 8001afc:	4b02      	ldr	r3, [pc, #8]	@ (8001b08 <HAL_GPIO_EXTI_Callback+0x1c>)
 8001afe:	300c      	adds	r0, #12
 8001b00:	6018      	str	r0, [r3, #0]
 8001b02:	bd10      	pop	{r4, pc}
 8001b04:	20000184 	.word	0x20000184
 8001b08:	200007b0 	.word	0x200007b0

08001b0c <HAL_TIM_PeriodElapsedCallback>:
 8001b0c:	4b33      	ldr	r3, [pc, #204]	@ (8001bdc <HAL_TIM_PeriodElapsedCallback+0xd0>)
 8001b0e:	b570      	push	{r4, r5, r6, lr}
 8001b10:	4298      	cmp	r0, r3
 8001b12:	d136      	bne.n	8001b82 <HAL_TIM_PeriodElapsedCallback+0x76>
 8001b14:	f001 fe86 	bl	8003824 <HAL_TIM_Base_Stop_IT>
 8001b18:	4c31      	ldr	r4, [pc, #196]	@ (8001be0 <HAL_TIM_PeriodElapsedCallback+0xd4>)
 8001b1a:	4a32      	ldr	r2, [pc, #200]	@ (8001be4 <HAL_TIM_PeriodElapsedCallback+0xd8>)
 8001b1c:	6823      	ldr	r3, [r4, #0]
 8001b1e:	4d32      	ldr	r5, [pc, #200]	@ (8001be8 <HAL_TIM_PeriodElapsedCallback+0xdc>)
 8001b20:	005b      	lsls	r3, r3, #1
 8001b22:	6023      	str	r3, [r4, #0]
 8001b24:	8813      	ldrh	r3, [r2, #0]
 8001b26:	3301      	adds	r3, #1
 8001b28:	b29b      	uxth	r3, r3
 8001b2a:	8013      	strh	r3, [r2, #0]
 8001b2c:	782b      	ldrb	r3, [r5, #0]
 8001b2e:	2b00      	cmp	r3, #0
 8001b30:	d01d      	beq.n	8001b6e <HAL_TIM_PeriodElapsedCallback+0x62>
 8001b32:	22d2      	movs	r2, #210	@ 0xd2
 8001b34:	4b2d      	ldr	r3, [pc, #180]	@ (8001bec <HAL_TIM_PeriodElapsedCallback+0xe0>)
 8001b36:	0052      	lsls	r2, r2, #1
 8001b38:	881b      	ldrh	r3, [r3, #0]
 8001b3a:	4293      	cmp	r3, r2
 8001b3c:	d217      	bcs.n	8001b6e <HAL_TIM_PeriodElapsedCallback+0x62>
 8001b3e:	2090      	movs	r0, #144	@ 0x90
 8001b40:	2302      	movs	r3, #2
 8001b42:	05c0      	lsls	r0, r0, #23
 8001b44:	6a82      	ldr	r2, [r0, #40]	@ 0x28
 8001b46:	2108      	movs	r1, #8
 8001b48:	4313      	orrs	r3, r2
 8001b4a:	6283      	str	r3, [r0, #40]	@ 0x28
 8001b4c:	2310      	movs	r3, #16
 8001b4e:	6802      	ldr	r2, [r0, #0]
 8001b50:	4313      	orrs	r3, r2
 8001b52:	6003      	str	r3, [r0, #0]
 8001b54:	2201      	movs	r2, #1
 8001b56:	f000 fe1f 	bl	8002798 <HAL_GPIO_WritePin>
 8001b5a:	782b      	ldrb	r3, [r5, #0]
 8001b5c:	3b01      	subs	r3, #1
 8001b5e:	b2db      	uxtb	r3, r3
 8001b60:	702b      	strb	r3, [r5, #0]
 8001b62:	6823      	ldr	r3, [r4, #0]
 8001b64:	3301      	adds	r3, #1
 8001b66:	6023      	str	r3, [r4, #0]
 8001b68:	f7ff fc14 	bl	8001394 <sensor_scan>
 8001b6c:	bd70      	pop	{r4, r5, r6, pc}
 8001b6e:	2090      	movs	r0, #144	@ 0x90
 8001b70:	2200      	movs	r2, #0
 8001b72:	2108      	movs	r1, #8
 8001b74:	05c0      	lsls	r0, r0, #23
 8001b76:	f000 fe0f 	bl	8002798 <HAL_GPIO_WritePin>
 8001b7a:	481d      	ldr	r0, [pc, #116]	@ (8001bf0 <HAL_TIM_PeriodElapsedCallback+0xe4>)
 8001b7c:	f001 fe22 	bl	80037c4 <HAL_TIM_Base_Start_IT>
 8001b80:	e7f2      	b.n	8001b68 <HAL_TIM_PeriodElapsedCallback+0x5c>
 8001b82:	4b1b      	ldr	r3, [pc, #108]	@ (8001bf0 <HAL_TIM_PeriodElapsedCallback+0xe4>)
 8001b84:	4298      	cmp	r0, r3
 8001b86:	d1f1      	bne.n	8001b6c <HAL_TIM_PeriodElapsedCallback+0x60>
 8001b88:	4b1a      	ldr	r3, [pc, #104]	@ (8001bf4 <HAL_TIM_PeriodElapsedCallback+0xe8>)
 8001b8a:	781a      	ldrb	r2, [r3, #0]
 8001b8c:	2a00      	cmp	r2, #0
 8001b8e:	d01a      	beq.n	8001bc6 <HAL_TIM_PeriodElapsedCallback+0xba>
 8001b90:	2200      	movs	r2, #0
 8001b92:	701a      	strb	r2, [r3, #0]
 8001b94:	2390      	movs	r3, #144	@ 0x90
 8001b96:	2010      	movs	r0, #16
 8001b98:	05db      	lsls	r3, r3, #23
 8001b9a:	6819      	ldr	r1, [r3, #0]
 8001b9c:	4381      	bics	r1, r0
 8001b9e:	4811      	ldr	r0, [pc, #68]	@ (8001be4 <HAL_TIM_PeriodElapsedCallback+0xd8>)
 8001ba0:	6019      	str	r1, [r3, #0]
 8001ba2:	8801      	ldrh	r1, [r0, #0]
 8001ba4:	2932      	cmp	r1, #50	@ 0x32
 8001ba6:	d9e1      	bls.n	8001b6c <HAL_TIM_PeriodElapsedCallback+0x60>
 8001ba8:	2401      	movs	r4, #1
 8001baa:	490f      	ldr	r1, [pc, #60]	@ (8001be8 <HAL_TIM_PeriodElapsedCallback+0xdc>)
 8001bac:	700a      	strb	r2, [r1, #0]
 8001bae:	4912      	ldr	r1, [pc, #72]	@ (8001bf8 <HAL_TIM_PeriodElapsedCallback+0xec>)
 8001bb0:	700c      	strb	r4, [r1, #0]
 8001bb2:	2102      	movs	r1, #2
 8001bb4:	699c      	ldr	r4, [r3, #24]
 8001bb6:	4321      	orrs	r1, r4
 8001bb8:	6199      	str	r1, [r3, #24]
 8001bba:	2104      	movs	r1, #4
 8001bbc:	681c      	ldr	r4, [r3, #0]
 8001bbe:	4321      	orrs	r1, r4
 8001bc0:	6019      	str	r1, [r3, #0]
 8001bc2:	8002      	strh	r2, [r0, #0]
 8001bc4:	e7d2      	b.n	8001b6c <HAL_TIM_PeriodElapsedCallback+0x60>
 8001bc6:	2201      	movs	r2, #1
 8001bc8:	701a      	strb	r2, [r3, #0]
 8001bca:	f001 fe2b 	bl	8003824 <HAL_TIM_Base_Stop_IT>
 8001bce:	2232      	movs	r2, #50	@ 0x32
 8001bd0:	490a      	ldr	r1, [pc, #40]	@ (8001bfc <HAL_TIM_PeriodElapsedCallback+0xf0>)
 8001bd2:	480b      	ldr	r0, [pc, #44]	@ (8001c00 <HAL_TIM_PeriodElapsedCallback+0xf4>)
 8001bd4:	f000 faa2 	bl	800211c <HAL_ADC_Start_DMA>
 8001bd8:	e7c8      	b.n	8001b6c <HAL_TIM_PeriodElapsedCallback+0x60>
 8001bda:	46c0      	nop			@ (mov r8, r8)
 8001bdc:	20000184 	.word	0x20000184
 8001be0:	200007b8 	.word	0x200007b8
 8001be4:	200007ac 	.word	0x200007ac
 8001be8:	200007bd 	.word	0x200007bd
 8001bec:	200007be 	.word	0x200007be
 8001bf0:	2000013c 	.word	0x2000013c
 8001bf4:	200000bc 	.word	0x200000bc
 8001bf8:	200007ae 	.word	0x200007ae
 8001bfc:	200007c4 	.word	0x200007c4
 8001c00:	20000308 	.word	0x20000308

08001c04 <read_pcb_temperature>:
 8001c04:	b51f      	push	{r0, r1, r2, r3, r4, lr}
 8001c06:	2364      	movs	r3, #100	@ 0x64
 8001c08:	ac03      	add	r4, sp, #12
 8001c0a:	9300      	str	r3, [sp, #0]
 8001c0c:	0022      	movs	r2, r4
 8001c0e:	2192      	movs	r1, #146	@ 0x92
 8001c10:	480b      	ldr	r0, [pc, #44]	@ (8001c40 <read_pcb_temperature+0x3c>)
 8001c12:	3b62      	subs	r3, #98	@ 0x62
 8001c14:	f000 ff1c 	bl	8002a50 <HAL_I2C_Master_Receive>
 8001c18:	2801      	cmp	r0, #1
 8001c1a:	d00e      	beq.n	8001c3a <read_pcb_temperature+0x36>
 8001c1c:	8820      	ldrh	r0, [r4, #0]
 8001c1e:	bac0      	revsh	r0, r0
 8001c20:	1140      	asrs	r0, r0, #5
 8001c22:	f7fe fe1d 	bl	8000860 <__aeabi_i2d>
 8001c26:	23ff      	movs	r3, #255	@ 0xff
 8001c28:	2200      	movs	r2, #0
 8001c2a:	059b      	lsls	r3, r3, #22
 8001c2c:	f7fe fb14 	bl	8000258 <__aeabi_dmul>
 8001c30:	f7fe fdda 	bl	80007e8 <__aeabi_d2iz>
 8001c34:	b200      	sxth	r0, r0
 8001c36:	b004      	add	sp, #16
 8001c38:	bd10      	pop	{r4, pc}
 8001c3a:	4802      	ldr	r0, [pc, #8]	@ (8001c44 <read_pcb_temperature+0x40>)
 8001c3c:	e7fb      	b.n	8001c36 <read_pcb_temperature+0x32>
 8001c3e:	46c0      	nop			@ (mov r8, r8)
 8001c40:	20000278 	.word	0x20000278
 8001c44:	000003e7 	.word	0x000003e7

08001c48 <get_ac_delay_tick>:
 8001c48:	4b01      	ldr	r3, [pc, #4]	@ (8001c50 <get_ac_delay_tick+0x8>)
 8001c4a:	6818      	ldr	r0, [r3, #0]
 8001c4c:	4770      	bx	lr
 8001c4e:	46c0      	nop			@ (mov r8, r8)
 8001c50:	200007b0 	.word	0x200007b0

08001c54 <heater_off>:
 8001c54:	2200      	movs	r2, #0
 8001c56:	4b01      	ldr	r3, [pc, #4]	@ (8001c5c <heater_off+0x8>)
 8001c58:	701a      	strb	r2, [r3, #0]
 8001c5a:	4770      	bx	lr
 8001c5c:	200007bd 	.word	0x200007bd

08001c60 <set_new_temp>:
 8001c60:	4b01      	ldr	r3, [pc, #4]	@ (8001c68 <set_new_temp+0x8>)
 8001c62:	8018      	strh	r0, [r3, #0]
 8001c64:	4770      	bx	lr
 8001c66:	46c0      	nop			@ (mov r8, r8)
 8001c68:	200000c0 	.word	0x200000c0

08001c6c <get_set_temp>:
 8001c6c:	4b01      	ldr	r3, [pc, #4]	@ (8001c74 <get_set_temp+0x8>)
 8001c6e:	8818      	ldrh	r0, [r3, #0]
 8001c70:	4770      	bx	lr
 8001c72:	46c0      	nop			@ (mov r8, r8)
 8001c74:	200000c0 	.word	0x200000c0

08001c78 <get_tip_temp>:
 8001c78:	4b01      	ldr	r3, [pc, #4]	@ (8001c80 <get_tip_temp+0x8>)
 8001c7a:	8818      	ldrh	r0, [r3, #0]
 8001c7c:	4770      	bx	lr
 8001c7e:	46c0      	nop			@ (mov r8, r8)
 8001c80:	200007be 	.word	0x200007be

08001c84 <get_tip_state>:
 8001c84:	4b01      	ldr	r3, [pc, #4]	@ (8001c8c <get_tip_state+0x8>)
 8001c86:	8818      	ldrh	r0, [r3, #0]
 8001c88:	b2c0      	uxtb	r0, r0
 8001c8a:	4770      	bx	lr
 8001c8c:	200000be 	.word	0x200000be

08001c90 <error_handler>:
 8001c90:	2090      	movs	r0, #144	@ 0x90
 8001c92:	2200      	movs	r2, #0
 8001c94:	2108      	movs	r1, #8
 8001c96:	b510      	push	{r4, lr}
 8001c98:	05c0      	lsls	r0, r0, #23
 8001c9a:	f000 fd7d 	bl	8002798 <HAL_GPIO_WritePin>
 8001c9e:	2200      	movs	r2, #0
 8001ca0:	2105      	movs	r1, #5
 8001ca2:	4b03      	ldr	r3, [pc, #12]	@ (8001cb0 <error_handler+0x20>)
 8001ca4:	701a      	strb	r2, [r3, #0]
 8001ca6:	4b03      	ldr	r3, [pc, #12]	@ (8001cb4 <error_handler+0x24>)
 8001ca8:	8019      	strh	r1, [r3, #0]
 8001caa:	4b03      	ldr	r3, [pc, #12]	@ (8001cb8 <error_handler+0x28>)
 8001cac:	701a      	strb	r2, [r3, #0]
 8001cae:	bd10      	pop	{r4, pc}
 8001cb0:	200007bd 	.word	0x200007bd
 8001cb4:	200000be 	.word	0x200000be
 8001cb8:	200007b4 	.word	0x200007b4

08001cbc <tip_check>:
 8001cbc:	b510      	push	{r4, lr}
 8001cbe:	4c0b      	ldr	r4, [pc, #44]	@ (8001cec <tip_check+0x30>)
 8001cc0:	7823      	ldrb	r3, [r4, #0]
 8001cc2:	2b02      	cmp	r3, #2
 8001cc4:	d003      	beq.n	8001cce <tip_check+0x12>
 8001cc6:	f7ff ffe3 	bl	8001c90 <error_handler>
 8001cca:	2005      	movs	r0, #5
 8001ccc:	e00a      	b.n	8001ce4 <tip_check+0x28>
 8001cce:	22fa      	movs	r2, #250	@ 0xfa
 8001cd0:	4b07      	ldr	r3, [pc, #28]	@ (8001cf0 <tip_check+0x34>)
 8001cd2:	2004      	movs	r0, #4
 8001cd4:	681b      	ldr	r3, [r3, #0]
 8001cd6:	0112      	lsls	r2, r2, #4
 8001cd8:	4293      	cmp	r3, r2
 8001cda:	d803      	bhi.n	8001ce4 <tip_check+0x28>
 8001cdc:	4a05      	ldr	r2, [pc, #20]	@ (8001cf4 <tip_check+0x38>)
 8001cde:	3801      	subs	r0, #1
 8001ce0:	4293      	cmp	r3, r2
 8001ce2:	d8f2      	bhi.n	8001cca <tip_check+0xe>
 8001ce4:	2300      	movs	r3, #0
 8001ce6:	7023      	strb	r3, [r4, #0]
 8001ce8:	bd10      	pop	{r4, pc}
 8001cea:	46c0      	nop			@ (mov r8, r8)
 8001cec:	200007ae 	.word	0x200007ae
 8001cf0:	200007c0 	.word	0x200007c0
 8001cf4:	00000ed7 	.word	0x00000ed7

08001cf8 <HAL_ADC_ConvCpltCallback>:
 8001cf8:	b5f8      	push	{r3, r4, r5, r6, r7, lr}
 8001cfa:	4d40      	ldr	r5, [pc, #256]	@ (8001dfc <HAL_ADC_ConvCpltCallback+0x104>)
 8001cfc:	2332      	movs	r3, #50	@ 0x32
 8001cfe:	002a      	movs	r2, r5
 8001d00:	2000      	movs	r0, #0
 8001d02:	8811      	ldrh	r1, [r2, #0]
 8001d04:	3b01      	subs	r3, #1
 8001d06:	b29b      	uxth	r3, r3
 8001d08:	1840      	adds	r0, r0, r1
 8001d0a:	3202      	adds	r2, #2
 8001d0c:	2b00      	cmp	r3, #0
 8001d0e:	d1f8      	bne.n	8001d02 <HAL_ADC_ConvCpltCallback+0xa>
 8001d10:	2132      	movs	r1, #50	@ 0x32
 8001d12:	f7fe fa15 	bl	8000140 <__udivsi3>
 8001d16:	4b3a      	ldr	r3, [pc, #232]	@ (8001e00 <HAL_ADC_ConvCpltCallback+0x108>)
 8001d18:	0004      	movs	r4, r0
 8001d1a:	6018      	str	r0, [r3, #0]
 8001d1c:	4b39      	ldr	r3, [pc, #228]	@ (8001e04 <HAL_ADC_ConvCpltCallback+0x10c>)
 8001d1e:	781a      	ldrb	r2, [r3, #0]
 8001d20:	2a01      	cmp	r2, #1
 8001d22:	d111      	bne.n	8001d48 <HAL_ADC_ConvCpltCallback+0x50>
 8001d24:	3201      	adds	r2, #1
 8001d26:	701a      	strb	r2, [r3, #0]
 8001d28:	2290      	movs	r2, #144	@ 0x90
 8001d2a:	2104      	movs	r1, #4
 8001d2c:	05d2      	lsls	r2, r2, #23
 8001d2e:	6813      	ldr	r3, [r2, #0]
 8001d30:	438b      	bics	r3, r1
 8001d32:	6013      	str	r3, [r2, #0]
 8001d34:	f7ff ffc2 	bl	8001cbc <tip_check>
 8001d38:	4b33      	ldr	r3, [pc, #204]	@ (8001e08 <HAL_ADC_ConvCpltCallback+0x110>)
 8001d3a:	8018      	strh	r0, [r3, #0]
 8001d3c:	4b33      	ldr	r3, [pc, #204]	@ (8001e0c <HAL_ADC_ConvCpltCallback+0x114>)
 8001d3e:	4a34      	ldr	r2, [pc, #208]	@ (8001e10 <HAL_ADC_ConvCpltCallback+0x118>)
 8001d40:	781b      	ldrb	r3, [r3, #0]
 8001d42:	b2db      	uxtb	r3, r3
 8001d44:	7013      	strb	r3, [r2, #0]
 8001d46:	bdf8      	pop	{r3, r4, r5, r6, r7, pc}
 8001d48:	781b      	ldrb	r3, [r3, #0]
 8001d4a:	2b00      	cmp	r3, #0
 8001d4c:	d1f6      	bne.n	8001d3c <HAL_ADC_ConvCpltCallback+0x44>
 8001d4e:	4b2e      	ldr	r3, [pc, #184]	@ (8001e08 <HAL_ADC_ConvCpltCallback+0x110>)
 8001d50:	881b      	ldrh	r3, [r3, #0]
 8001d52:	2b03      	cmp	r3, #3
 8001d54:	d1f2      	bne.n	8001d3c <HAL_ADC_ConvCpltCallback+0x44>
 8001d56:	2064      	movs	r0, #100	@ 0x64
 8001d58:	492e      	ldr	r1, [pc, #184]	@ (8001e14 <HAL_ADC_ConvCpltCallback+0x11c>)
 8001d5a:	4360      	muls	r0, r4
 8001d5c:	f7fe f9f0 	bl	8000140 <__udivsi3>
 8001d60:	b2a4      	uxth	r4, r4
 8001d62:	0022      	movs	r2, r4
 8001d64:	2332      	movs	r3, #50	@ 0x32
 8001d66:	2701      	movs	r7, #1
 8001d68:	4e2b      	ldr	r6, [pc, #172]	@ (8001e18 <HAL_ADC_ConvCpltCallback+0x120>)
 8001d6a:	3019      	adds	r0, #25
 8001d6c:	8030      	strh	r0, [r6, #0]
 8001d6e:	32c8      	adds	r2, #200	@ 0xc8
 8001d70:	3cc8      	subs	r4, #200	@ 0xc8
 8001d72:	482a      	ldr	r0, [pc, #168]	@ (8001e1c <HAL_ADC_ConvCpltCallback+0x124>)
 8001d74:	b212      	sxth	r2, r2
 8001d76:	b224      	sxth	r4, r4
 8001d78:	8829      	ldrh	r1, [r5, #0]
 8001d7a:	4291      	cmp	r1, r2
 8001d7c:	dc01      	bgt.n	8001d82 <HAL_ADC_ConvCpltCallback+0x8a>
 8001d7e:	42a1      	cmp	r1, r4
 8001d80:	da00      	bge.n	8001d84 <HAL_ADC_ConvCpltCallback+0x8c>
 8001d82:	7007      	strb	r7, [r0, #0]
 8001d84:	3b01      	subs	r3, #1
 8001d86:	b29b      	uxth	r3, r3
 8001d88:	3502      	adds	r5, #2
 8001d8a:	2b00      	cmp	r3, #0
 8001d8c:	d1f4      	bne.n	8001d78 <HAL_ADC_ConvCpltCallback+0x80>
 8001d8e:	4b23      	ldr	r3, [pc, #140]	@ (8001e1c <HAL_ADC_ConvCpltCallback+0x124>)
 8001d90:	781b      	ldrb	r3, [r3, #0]
 8001d92:	2b01      	cmp	r3, #1
 8001d94:	d104      	bne.n	8001da0 <HAL_ADC_ConvCpltCallback+0xa8>
 8001d96:	4b22      	ldr	r3, [pc, #136]	@ (8001e20 <HAL_ADC_ConvCpltCallback+0x128>)
 8001d98:	8033      	strh	r3, [r6, #0]
 8001d9a:	f7ff ff79 	bl	8001c90 <error_handler>
 8001d9e:	e7cd      	b.n	8001d3c <HAL_ADC_ConvCpltCallback+0x44>
 8001da0:	f7ff fb0a 	bl	80013b8 <get_system_state>
 8001da4:	2803      	cmp	r0, #3
 8001da6:	d11c      	bne.n	8001de2 <HAL_ADC_ConvCpltCallback+0xea>
 8001da8:	4b1e      	ldr	r3, [pc, #120]	@ (8001e24 <HAL_ADC_ConvCpltCallback+0x12c>)
 8001daa:	881c      	ldrh	r4, [r3, #0]
 8001dac:	f7ff fb04 	bl	80013b8 <get_system_state>
 8001db0:	2804      	cmp	r0, #4
 8001db2:	d104      	bne.n	8001dbe <HAL_ADC_ConvCpltCallback+0xc6>
 8001db4:	1c23      	adds	r3, r4, #0
 8001db6:	2ca0      	cmp	r4, #160	@ 0xa0
 8001db8:	d900      	bls.n	8001dbc <HAL_ADC_ConvCpltCallback+0xc4>
 8001dba:	23a0      	movs	r3, #160	@ 0xa0
 8001dbc:	b29c      	uxth	r4, r3
 8001dbe:	8830      	ldrh	r0, [r6, #0]
 8001dc0:	4d12      	ldr	r5, [pc, #72]	@ (8001e0c <HAL_ADC_ConvCpltCallback+0x114>)
 8001dc2:	1cc2      	adds	r2, r0, #3
 8001dc4:	42a2      	cmp	r2, r4
 8001dc6:	da16      	bge.n	8001df6 <HAL_ADC_ConvCpltCallback+0xfe>
 8001dc8:	1a20      	subs	r0, r4, r0
 8001dca:	210a      	movs	r1, #10
 8001dcc:	b280      	uxth	r0, r0
 8001dce:	f7fe f9b7 	bl	8000140 <__udivsi3>
 8001dd2:	b2c0      	uxtb	r0, r0
 8001dd4:	7028      	strb	r0, [r5, #0]
 8001dd6:	782b      	ldrb	r3, [r5, #0]
 8001dd8:	2b04      	cmp	r3, #4
 8001dda:	d907      	bls.n	8001dec <HAL_ADC_ConvCpltCallback+0xf4>
 8001ddc:	2304      	movs	r3, #4
 8001dde:	702b      	strb	r3, [r5, #0]
 8001de0:	e7ac      	b.n	8001d3c <HAL_ADC_ConvCpltCallback+0x44>
 8001de2:	f7ff fae9 	bl	80013b8 <get_system_state>
 8001de6:	2804      	cmp	r0, #4
 8001de8:	d1a8      	bne.n	8001d3c <HAL_ADC_ConvCpltCallback+0x44>
 8001dea:	e7dd      	b.n	8001da8 <HAL_ADC_ConvCpltCallback+0xb0>
 8001dec:	782b      	ldrb	r3, [r5, #0]
 8001dee:	2b00      	cmp	r3, #0
 8001df0:	d1a4      	bne.n	8001d3c <HAL_ADC_ConvCpltCallback+0x44>
 8001df2:	3301      	adds	r3, #1
 8001df4:	e7f3      	b.n	8001dde <HAL_ADC_ConvCpltCallback+0xe6>
 8001df6:	2300      	movs	r3, #0
 8001df8:	e7f1      	b.n	8001dde <HAL_ADC_ConvCpltCallback+0xe6>
 8001dfa:	46c0      	nop			@ (mov r8, r8)
 8001dfc:	200007c4 	.word	0x200007c4
 8001e00:	200007c0 	.word	0x200007c0
 8001e04:	200007ae 	.word	0x200007ae
 8001e08:	200000be 	.word	0x200000be
 8001e0c:	200007bd 	.word	0x200007bd
 8001e10:	200007bc 	.word	0x200007bc
 8001e14:	000002ee 	.word	0x000002ee
 8001e18:	200007be 	.word	0x200007be
 8001e1c:	200007b4 	.word	0x200007b4
 8001e20:	000003e7 	.word	0x000003e7
 8001e24:	200000c0 	.word	0x200000c0

08001e28 <get_power_bar_value>:
 8001e28:	4b01      	ldr	r3, [pc, #4]	@ (8001e30 <get_power_bar_value+0x8>)
 8001e2a:	7818      	ldrb	r0, [r3, #0]
 8001e2c:	b2c0      	uxtb	r0, r0
 8001e2e:	4770      	bx	lr
 8001e30:	200007bc 	.word	0x200007bc

08001e34 <Reset_Handler>:
 8001e34:	480d      	ldr	r0, [pc, #52]	@ (8001e6c <LoopForever+0x2>)
 8001e36:	4685      	mov	sp, r0
 8001e38:	480d      	ldr	r0, [pc, #52]	@ (8001e70 <LoopForever+0x6>)
 8001e3a:	490e      	ldr	r1, [pc, #56]	@ (8001e74 <LoopForever+0xa>)
 8001e3c:	4a0e      	ldr	r2, [pc, #56]	@ (8001e78 <LoopForever+0xe>)
 8001e3e:	2300      	movs	r3, #0
 8001e40:	e002      	b.n	8001e48 <LoopCopyDataInit>

08001e42 <CopyDataInit>:
 8001e42:	58d4      	ldr	r4, [r2, r3]
 8001e44:	50c4      	str	r4, [r0, r3]
 8001e46:	3304      	adds	r3, #4

08001e48 <LoopCopyDataInit>:
 8001e48:	18c4      	adds	r4, r0, r3
 8001e4a:	428c      	cmp	r4, r1
 8001e4c:	d3f9      	bcc.n	8001e42 <CopyDataInit>
 8001e4e:	4a0b      	ldr	r2, [pc, #44]	@ (8001e7c <LoopForever+0x12>)
 8001e50:	4c0b      	ldr	r4, [pc, #44]	@ (8001e80 <LoopForever+0x16>)
 8001e52:	2300      	movs	r3, #0
 8001e54:	e001      	b.n	8001e5a <LoopFillZerobss>

08001e56 <FillZerobss>:
 8001e56:	6013      	str	r3, [r2, #0]
 8001e58:	3204      	adds	r2, #4

08001e5a <LoopFillZerobss>:
 8001e5a:	42a2      	cmp	r2, r4
 8001e5c:	d3fb      	bcc.n	8001e56 <FillZerobss>
 8001e5e:	f7ff fe43 	bl	8001ae8 <SystemInit>
 8001e62:	f001 ff53 	bl	8003d0c <__libc_init_array>
 8001e66:	f7fe ffeb 	bl	8000e40 <main>

08001e6a <LoopForever>:
 8001e6a:	e7fe      	b.n	8001e6a <LoopForever>
 8001e6c:	20004000 	.word	0x20004000
 8001e70:	20000000 	.word	0x20000000
 8001e74:	20000118 	.word	0x20000118
 8001e78:	08006230 	.word	0x08006230
 8001e7c:	20000118 	.word	0x20000118
 8001e80:	20000974 	.word	0x20000974

08001e84 <ADC1_COMP_IRQHandler>:
 8001e84:	e7fe      	b.n	8001e84 <ADC1_COMP_IRQHandler>
	...

08001e88 <HAL_InitTick>:
 8001e88:	b570      	push	{r4, r5, r6, lr}
 8001e8a:	0005      	movs	r5, r0
 8001e8c:	20fa      	movs	r0, #250	@ 0xfa
 8001e8e:	4b0d      	ldr	r3, [pc, #52]	@ (8001ec4 <HAL_InitTick+0x3c>)
 8001e90:	0080      	lsls	r0, r0, #2
 8001e92:	7819      	ldrb	r1, [r3, #0]
 8001e94:	f7fe f954 	bl	8000140 <__udivsi3>
 8001e98:	4c0b      	ldr	r4, [pc, #44]	@ (8001ec8 <HAL_InitTick+0x40>)
 8001e9a:	0001      	movs	r1, r0
 8001e9c:	6820      	ldr	r0, [r4, #0]
 8001e9e:	f7fe f94f 	bl	8000140 <__udivsi3>
 8001ea2:	f000 fae3 	bl	800246c <HAL_SYSTICK_Config>
 8001ea6:	0004      	movs	r4, r0
 8001ea8:	2001      	movs	r0, #1
 8001eaa:	2c00      	cmp	r4, #0
 8001eac:	d109      	bne.n	8001ec2 <HAL_InitTick+0x3a>
 8001eae:	2d03      	cmp	r5, #3
 8001eb0:	d807      	bhi.n	8001ec2 <HAL_InitTick+0x3a>
 8001eb2:	3802      	subs	r0, #2
 8001eb4:	0022      	movs	r2, r4
 8001eb6:	0029      	movs	r1, r5
 8001eb8:	f000 faa2 	bl	8002400 <HAL_NVIC_SetPriority>
 8001ebc:	0020      	movs	r0, r4
 8001ebe:	4b03      	ldr	r3, [pc, #12]	@ (8001ecc <HAL_InitTick+0x44>)
 8001ec0:	601d      	str	r5, [r3, #0]
 8001ec2:	bd70      	pop	{r4, r5, r6, pc}
 8001ec4:	200000c2 	.word	0x200000c2
 8001ec8:	200000b8 	.word	0x200000b8
 8001ecc:	200000c4 	.word	0x200000c4

08001ed0 <HAL_Init>:
 8001ed0:	2310      	movs	r3, #16
 8001ed2:	4a06      	ldr	r2, [pc, #24]	@ (8001eec <HAL_Init+0x1c>)
 8001ed4:	b510      	push	{r4, lr}
 8001ed6:	6811      	ldr	r1, [r2, #0]
 8001ed8:	2003      	movs	r0, #3
 8001eda:	430b      	orrs	r3, r1
 8001edc:	6013      	str	r3, [r2, #0]
 8001ede:	f7ff ffd3 	bl	8001e88 <HAL_InitTick>
 8001ee2:	f7ff fc7f 	bl	80017e4 <HAL_MspInit>
 8001ee6:	2000      	movs	r0, #0
 8001ee8:	bd10      	pop	{r4, pc}
 8001eea:	46c0      	nop			@ (mov r8, r8)
 8001eec:	40022000 	.word	0x40022000

08001ef0 <HAL_IncTick>:
 8001ef0:	4a03      	ldr	r2, [pc, #12]	@ (8001f00 <HAL_IncTick+0x10>)
 8001ef2:	4b04      	ldr	r3, [pc, #16]	@ (8001f04 <HAL_IncTick+0x14>)
 8001ef4:	6811      	ldr	r1, [r2, #0]
 8001ef6:	781b      	ldrb	r3, [r3, #0]
 8001ef8:	185b      	adds	r3, r3, r1
 8001efa:	6013      	str	r3, [r2, #0]
 8001efc:	4770      	bx	lr
 8001efe:	46c0      	nop			@ (mov r8, r8)
 8001f00:	20000828 	.word	0x20000828
 8001f04:	200000c2 	.word	0x200000c2

08001f08 <HAL_GetTick>:
 8001f08:	4b01      	ldr	r3, [pc, #4]	@ (8001f10 <HAL_GetTick+0x8>)
 8001f0a:	6818      	ldr	r0, [r3, #0]
 8001f0c:	4770      	bx	lr
 8001f0e:	46c0      	nop			@ (mov r8, r8)
 8001f10:	20000828 	.word	0x20000828

08001f14 <HAL_Delay>:
 8001f14:	b570      	push	{r4, r5, r6, lr}
 8001f16:	0004      	movs	r4, r0
 8001f18:	f7ff fff6 	bl	8001f08 <HAL_GetTick>
 8001f1c:	0005      	movs	r5, r0
 8001f1e:	1c63      	adds	r3, r4, #1
 8001f20:	d002      	beq.n	8001f28 <HAL_Delay+0x14>
 8001f22:	4b04      	ldr	r3, [pc, #16]	@ (8001f34 <HAL_Delay+0x20>)
 8001f24:	781b      	ldrb	r3, [r3, #0]
 8001f26:	18e4      	adds	r4, r4, r3
 8001f28:	f7ff ffee 	bl	8001f08 <HAL_GetTick>
 8001f2c:	1b40      	subs	r0, r0, r5
 8001f2e:	42a0      	cmp	r0, r4
 8001f30:	d3fa      	bcc.n	8001f28 <HAL_Delay+0x14>
 8001f32:	bd70      	pop	{r4, r5, r6, pc}
 8001f34:	200000c2 	.word	0x200000c2

08001f38 <ADC_Enable.constprop.0>:
 8001f38:	2300      	movs	r3, #0
 8001f3a:	b573      	push	{r0, r1, r4, r5, r6, lr}
 8001f3c:	2103      	movs	r1, #3
 8001f3e:	9301      	str	r3, [sp, #4]
 8001f40:	6803      	ldr	r3, [r0, #0]
 8001f42:	0004      	movs	r4, r0
 8001f44:	689a      	ldr	r2, [r3, #8]
 8001f46:	400a      	ands	r2, r1
 8001f48:	2a01      	cmp	r2, #1
 8001f4a:	d107      	bne.n	8001f5c <ADC_Enable.constprop.0+0x24>
 8001f4c:	6819      	ldr	r1, [r3, #0]
 8001f4e:	4211      	tst	r1, r2
 8001f50:	d001      	beq.n	8001f56 <ADC_Enable.constprop.0+0x1e>
 8001f52:	2000      	movs	r0, #0
 8001f54:	bd76      	pop	{r1, r2, r4, r5, r6, pc}
 8001f56:	68da      	ldr	r2, [r3, #12]
 8001f58:	0412      	lsls	r2, r2, #16
 8001f5a:	d4fa      	bmi.n	8001f52 <ADC_Enable.constprop.0+0x1a>
 8001f5c:	6899      	ldr	r1, [r3, #8]
 8001f5e:	4a1b      	ldr	r2, [pc, #108]	@ (8001fcc <ADC_Enable.constprop.0+0x94>)
 8001f60:	4211      	tst	r1, r2
 8001f62:	d009      	beq.n	8001f78 <ADC_Enable.constprop.0+0x40>
 8001f64:	2310      	movs	r3, #16
 8001f66:	6ba2      	ldr	r2, [r4, #56]	@ 0x38
 8001f68:	4313      	orrs	r3, r2
 8001f6a:	63a3      	str	r3, [r4, #56]	@ 0x38
 8001f6c:	2301      	movs	r3, #1
 8001f6e:	6be2      	ldr	r2, [r4, #60]	@ 0x3c
 8001f70:	4313      	orrs	r3, r2
 8001f72:	2001      	movs	r0, #1
 8001f74:	63e3      	str	r3, [r4, #60]	@ 0x3c
 8001f76:	e7ed      	b.n	8001f54 <ADC_Enable.constprop.0+0x1c>
 8001f78:	2201      	movs	r2, #1
 8001f7a:	6899      	ldr	r1, [r3, #8]
 8001f7c:	430a      	orrs	r2, r1
 8001f7e:	609a      	str	r2, [r3, #8]
 8001f80:	4b13      	ldr	r3, [pc, #76]	@ (8001fd0 <ADC_Enable.constprop.0+0x98>)
 8001f82:	4914      	ldr	r1, [pc, #80]	@ (8001fd4 <ADC_Enable.constprop.0+0x9c>)
 8001f84:	6818      	ldr	r0, [r3, #0]
 8001f86:	f7fe f8db 	bl	8000140 <__udivsi3>
 8001f8a:	9001      	str	r0, [sp, #4]
 8001f8c:	9b01      	ldr	r3, [sp, #4]
 8001f8e:	2b00      	cmp	r3, #0
 8001f90:	d117      	bne.n	8001fc2 <ADC_Enable.constprop.0+0x8a>
 8001f92:	f7ff ffb9 	bl	8001f08 <HAL_GetTick>
 8001f96:	2501      	movs	r5, #1
 8001f98:	0006      	movs	r6, r0
 8001f9a:	6823      	ldr	r3, [r4, #0]
 8001f9c:	681b      	ldr	r3, [r3, #0]
 8001f9e:	422b      	tst	r3, r5
 8001fa0:	d1d7      	bne.n	8001f52 <ADC_Enable.constprop.0+0x1a>
 8001fa2:	f7ff ffb1 	bl	8001f08 <HAL_GetTick>
 8001fa6:	1b80      	subs	r0, r0, r6
 8001fa8:	2802      	cmp	r0, #2
 8001faa:	d9f6      	bls.n	8001f9a <ADC_Enable.constprop.0+0x62>
 8001fac:	6823      	ldr	r3, [r4, #0]
 8001fae:	681b      	ldr	r3, [r3, #0]
 8001fb0:	422b      	tst	r3, r5
 8001fb2:	d1f2      	bne.n	8001f9a <ADC_Enable.constprop.0+0x62>
 8001fb4:	2310      	movs	r3, #16
 8001fb6:	6ba2      	ldr	r2, [r4, #56]	@ 0x38
 8001fb8:	4313      	orrs	r3, r2
 8001fba:	63a3      	str	r3, [r4, #56]	@ 0x38
 8001fbc:	6be3      	ldr	r3, [r4, #60]	@ 0x3c
 8001fbe:	432b      	orrs	r3, r5
 8001fc0:	e7d7      	b.n	8001f72 <ADC_Enable.constprop.0+0x3a>
 8001fc2:	9b01      	ldr	r3, [sp, #4]
 8001fc4:	3b01      	subs	r3, #1
 8001fc6:	9301      	str	r3, [sp, #4]
 8001fc8:	e7e0      	b.n	8001f8c <ADC_Enable.constprop.0+0x54>
 8001fca:	46c0      	nop			@ (mov r8, r8)
 8001fcc:	80000017 	.word	0x80000017
 8001fd0:	200000b8 	.word	0x200000b8
 8001fd4:	000f4240 	.word	0x000f4240

08001fd8 <HAL_ADC_Init>:
 8001fd8:	b570      	push	{r4, r5, r6, lr}
 8001fda:	1e04      	subs	r4, r0, #0
 8001fdc:	d100      	bne.n	8001fe0 <HAL_ADC_Init+0x8>
 8001fde:	e090      	b.n	8002102 <HAL_ADC_Init+0x12a>
 8001fe0:	6b83      	ldr	r3, [r0, #56]	@ 0x38
 8001fe2:	2b00      	cmp	r3, #0
 8001fe4:	d105      	bne.n	8001ff2 <HAL_ADC_Init+0x1a>
 8001fe6:	0002      	movs	r2, r0
 8001fe8:	3234      	adds	r2, #52	@ 0x34
 8001fea:	63c3      	str	r3, [r0, #60]	@ 0x3c
 8001fec:	7013      	strb	r3, [r2, #0]
 8001fee:	f7ff fc11 	bl	8001814 <HAL_ADC_MspInit>
 8001ff2:	6ba3      	ldr	r3, [r4, #56]	@ 0x38
 8001ff4:	06db      	lsls	r3, r3, #27
 8001ff6:	d500      	bpl.n	8001ffa <HAL_ADC_Init+0x22>
 8001ff8:	e085      	b.n	8002106 <HAL_ADC_Init+0x12e>
 8001ffa:	6822      	ldr	r2, [r4, #0]
 8001ffc:	6893      	ldr	r3, [r2, #8]
 8001ffe:	075b      	lsls	r3, r3, #29
 8002000:	d500      	bpl.n	8002004 <HAL_ADC_Init+0x2c>
 8002002:	e080      	b.n	8002106 <HAL_ADC_Init+0x12e>
 8002004:	6ba1      	ldr	r1, [r4, #56]	@ 0x38
 8002006:	4b42      	ldr	r3, [pc, #264]	@ (8002110 <HAL_ADC_Init+0x138>)
 8002008:	4019      	ands	r1, r3
 800200a:	3306      	adds	r3, #6
 800200c:	33ff      	adds	r3, #255	@ 0xff
 800200e:	430b      	orrs	r3, r1
 8002010:	2103      	movs	r1, #3
 8002012:	63a3      	str	r3, [r4, #56]	@ 0x38
 8002014:	6893      	ldr	r3, [r2, #8]
 8002016:	400b      	ands	r3, r1
 8002018:	2b01      	cmp	r3, #1
 800201a:	d105      	bne.n	8002028 <HAL_ADC_Init+0x50>
 800201c:	6811      	ldr	r1, [r2, #0]
 800201e:	4219      	tst	r1, r3
 8002020:	d10e      	bne.n	8002040 <HAL_ADC_Init+0x68>
 8002022:	68d3      	ldr	r3, [r2, #12]
 8002024:	041b      	lsls	r3, r3, #16
 8002026:	d40b      	bmi.n	8002040 <HAL_ADC_Init+0x68>
 8002028:	2118      	movs	r1, #24
 800202a:	68d3      	ldr	r3, [r2, #12]
 800202c:	438b      	bics	r3, r1
 800202e:	68a1      	ldr	r1, [r4, #8]
 8002030:	430b      	orrs	r3, r1
 8002032:	60d3      	str	r3, [r2, #12]
 8002034:	6913      	ldr	r3, [r2, #16]
 8002036:	6861      	ldr	r1, [r4, #4]
 8002038:	009b      	lsls	r3, r3, #2
 800203a:	089b      	lsrs	r3, r3, #2
 800203c:	430b      	orrs	r3, r1
 800203e:	6113      	str	r3, [r2, #16]
 8002040:	68d3      	ldr	r3, [r2, #12]
 8002042:	4934      	ldr	r1, [pc, #208]	@ (8002114 <HAL_ADC_Init+0x13c>)
 8002044:	400b      	ands	r3, r1
 8002046:	60d3      	str	r3, [r2, #12]
 8002048:	7e23      	ldrb	r3, [r4, #24]
 800204a:	7e60      	ldrb	r0, [r4, #25]
 800204c:	039b      	lsls	r3, r3, #14
 800204e:	03c0      	lsls	r0, r0, #15
 8002050:	4303      	orrs	r3, r0
 8002052:	7ea1      	ldrb	r1, [r4, #26]
 8002054:	68e0      	ldr	r0, [r4, #12]
 8002056:	4303      	orrs	r3, r0
 8002058:	0348      	lsls	r0, r1, #13
 800205a:	4303      	orrs	r3, r0
 800205c:	1d60      	adds	r0, r4, #5
 800205e:	7fc0      	ldrb	r0, [r0, #31]
 8002060:	0040      	lsls	r0, r0, #1
 8002062:	4303      	orrs	r3, r0
 8002064:	6aa0      	ldr	r0, [r4, #40]	@ 0x28
 8002066:	3801      	subs	r0, #1
 8002068:	1e45      	subs	r5, r0, #1
 800206a:	41a8      	sbcs	r0, r5
 800206c:	0300      	lsls	r0, r0, #12
 800206e:	4303      	orrs	r3, r0
 8002070:	6920      	ldr	r0, [r4, #16]
 8002072:	3802      	subs	r0, #2
 8002074:	4245      	negs	r5, r0
 8002076:	4168      	adcs	r0, r5
 8002078:	0080      	lsls	r0, r0, #2
 800207a:	4303      	orrs	r3, r0
 800207c:	7ee0      	ldrb	r0, [r4, #27]
 800207e:	2801      	cmp	r0, #1
 8002080:	d104      	bne.n	800208c <HAL_ADC_Init+0xb4>
 8002082:	2900      	cmp	r1, #0
 8002084:	d12b      	bne.n	80020de <HAL_ADC_Init+0x106>
 8002086:	2180      	movs	r1, #128	@ 0x80
 8002088:	0249      	lsls	r1, r1, #9
 800208a:	430b      	orrs	r3, r1
 800208c:	20c2      	movs	r0, #194	@ 0xc2
 800208e:	69e1      	ldr	r1, [r4, #28]
 8002090:	30ff      	adds	r0, #255	@ 0xff
 8002092:	4281      	cmp	r1, r0
 8002094:	d002      	beq.n	800209c <HAL_ADC_Init+0xc4>
 8002096:	6a20      	ldr	r0, [r4, #32]
 8002098:	4301      	orrs	r1, r0
 800209a:	430b      	orrs	r3, r1
 800209c:	2080      	movs	r0, #128	@ 0x80
 800209e:	68d1      	ldr	r1, [r2, #12]
 80020a0:	0540      	lsls	r0, r0, #21
 80020a2:	4319      	orrs	r1, r3
 80020a4:	60d1      	str	r1, [r2, #12]
 80020a6:	6ae1      	ldr	r1, [r4, #44]	@ 0x2c
 80020a8:	4281      	cmp	r1, r0
 80020aa:	d002      	beq.n	80020b2 <HAL_ADC_Init+0xda>
 80020ac:	1e48      	subs	r0, r1, #1
 80020ae:	2806      	cmp	r0, #6
 80020b0:	d807      	bhi.n	80020c2 <HAL_ADC_Init+0xea>
 80020b2:	2507      	movs	r5, #7
 80020b4:	6950      	ldr	r0, [r2, #20]
 80020b6:	4029      	ands	r1, r5
 80020b8:	43a8      	bics	r0, r5
 80020ba:	6150      	str	r0, [r2, #20]
 80020bc:	6950      	ldr	r0, [r2, #20]
 80020be:	4301      	orrs	r1, r0
 80020c0:	6151      	str	r1, [r2, #20]
 80020c2:	68d2      	ldr	r2, [r2, #12]
 80020c4:	4914      	ldr	r1, [pc, #80]	@ (8002118 <HAL_ADC_Init+0x140>)
 80020c6:	400a      	ands	r2, r1
 80020c8:	429a      	cmp	r2, r3
 80020ca:	d110      	bne.n	80020ee <HAL_ADC_Init+0x116>
 80020cc:	2000      	movs	r0, #0
 80020ce:	2303      	movs	r3, #3
 80020d0:	63e0      	str	r0, [r4, #60]	@ 0x3c
 80020d2:	6ba2      	ldr	r2, [r4, #56]	@ 0x38
 80020d4:	439a      	bics	r2, r3
 80020d6:	3b02      	subs	r3, #2
 80020d8:	4313      	orrs	r3, r2
 80020da:	63a3      	str	r3, [r4, #56]	@ 0x38
 80020dc:	bd70      	pop	{r4, r5, r6, pc}
 80020de:	2120      	movs	r1, #32
 80020e0:	6ba5      	ldr	r5, [r4, #56]	@ 0x38
 80020e2:	4329      	orrs	r1, r5
 80020e4:	63a1      	str	r1, [r4, #56]	@ 0x38
 80020e6:	6be1      	ldr	r1, [r4, #60]	@ 0x3c
 80020e8:	4308      	orrs	r0, r1
 80020ea:	63e0      	str	r0, [r4, #60]	@ 0x3c
 80020ec:	e7ce      	b.n	800208c <HAL_ADC_Init+0xb4>
 80020ee:	2312      	movs	r3, #18
 80020f0:	6ba2      	ldr	r2, [r4, #56]	@ 0x38
 80020f2:	439a      	bics	r2, r3
 80020f4:	3b02      	subs	r3, #2
 80020f6:	4313      	orrs	r3, r2
 80020f8:	63a3      	str	r3, [r4, #56]	@ 0x38
 80020fa:	2301      	movs	r3, #1
 80020fc:	6be2      	ldr	r2, [r4, #60]	@ 0x3c
 80020fe:	4313      	orrs	r3, r2
 8002100:	63e3      	str	r3, [r4, #60]	@ 0x3c
 8002102:	2001      	movs	r0, #1
 8002104:	e7ea      	b.n	80020dc <HAL_ADC_Init+0x104>
 8002106:	2310      	movs	r3, #16
 8002108:	6ba2      	ldr	r2, [r4, #56]	@ 0x38
 800210a:	4313      	orrs	r3, r2
 800210c:	63a3      	str	r3, [r4, #56]	@ 0x38
 800210e:	e7f8      	b.n	8002102 <HAL_ADC_Init+0x12a>
 8002110:	fffffefd 	.word	0xfffffefd
 8002114:	fffe0219 	.word	0xfffe0219
 8002118:	833fffe7 	.word	0x833fffe7

0800211c <HAL_ADC_Start_DMA>:
 800211c:	b5f7      	push	{r0, r1, r2, r4, r5, r6, r7, lr}
 800211e:	6803      	ldr	r3, [r0, #0]
 8002120:	0004      	movs	r4, r0
 8002122:	689b      	ldr	r3, [r3, #8]
 8002124:	000e      	movs	r6, r1
 8002126:	2002      	movs	r0, #2
 8002128:	9201      	str	r2, [sp, #4]
 800212a:	075b      	lsls	r3, r3, #29
 800212c:	d430      	bmi.n	8002190 <HAL_ADC_Start_DMA+0x74>
 800212e:	0027      	movs	r7, r4
 8002130:	3734      	adds	r7, #52	@ 0x34
 8002132:	783b      	ldrb	r3, [r7, #0]
 8002134:	2b01      	cmp	r3, #1
 8002136:	d02b      	beq.n	8002190 <HAL_ADC_Start_DMA+0x74>
 8002138:	2301      	movs	r3, #1
 800213a:	703b      	strb	r3, [r7, #0]
 800213c:	7e63      	ldrb	r3, [r4, #25]
 800213e:	2b01      	cmp	r3, #1
 8002140:	d127      	bne.n	8002192 <HAL_ADC_Start_DMA+0x76>
 8002142:	6ba2      	ldr	r2, [r4, #56]	@ 0x38
 8002144:	4b16      	ldr	r3, [pc, #88]	@ (80021a0 <HAL_ADC_Start_DMA+0x84>)
 8002146:	2500      	movs	r5, #0
 8002148:	401a      	ands	r2, r3
 800214a:	2380      	movs	r3, #128	@ 0x80
 800214c:	005b      	lsls	r3, r3, #1
 800214e:	4313      	orrs	r3, r2
 8002150:	63a3      	str	r3, [r4, #56]	@ 0x38
 8002152:	63e5      	str	r5, [r4, #60]	@ 0x3c
 8002154:	703d      	strb	r5, [r7, #0]
 8002156:	6b20      	ldr	r0, [r4, #48]	@ 0x30
 8002158:	4b12      	ldr	r3, [pc, #72]	@ (80021a4 <HAL_ADC_Start_DMA+0x88>)
 800215a:	6821      	ldr	r1, [r4, #0]
 800215c:	6283      	str	r3, [r0, #40]	@ 0x28
 800215e:	4b12      	ldr	r3, [pc, #72]	@ (80021a8 <HAL_ADC_Start_DMA+0x8c>)
 8002160:	62c3      	str	r3, [r0, #44]	@ 0x2c
 8002162:	4b12      	ldr	r3, [pc, #72]	@ (80021ac <HAL_ADC_Start_DMA+0x90>)
 8002164:	6303      	str	r3, [r0, #48]	@ 0x30
 8002166:	231c      	movs	r3, #28
 8002168:	600b      	str	r3, [r1, #0]
 800216a:	684a      	ldr	r2, [r1, #4]
 800216c:	3b0c      	subs	r3, #12
 800216e:	4313      	orrs	r3, r2
 8002170:	604b      	str	r3, [r1, #4]
 8002172:	2301      	movs	r3, #1
 8002174:	68ca      	ldr	r2, [r1, #12]
 8002176:	4313      	orrs	r3, r2
 8002178:	60cb      	str	r3, [r1, #12]
 800217a:	0032      	movs	r2, r6
 800217c:	9b01      	ldr	r3, [sp, #4]
 800217e:	3140      	adds	r1, #64	@ 0x40
 8002180:	f000 f9c0 	bl	8002504 <HAL_DMA_Start_IT>
 8002184:	2304      	movs	r3, #4
 8002186:	0028      	movs	r0, r5
 8002188:	6822      	ldr	r2, [r4, #0]
 800218a:	6891      	ldr	r1, [r2, #8]
 800218c:	430b      	orrs	r3, r1
 800218e:	6093      	str	r3, [r2, #8]
 8002190:	bdfe      	pop	{r1, r2, r3, r4, r5, r6, r7, pc}
 8002192:	0020      	movs	r0, r4
 8002194:	f7ff fed0 	bl	8001f38 <ADC_Enable.constprop.0>
 8002198:	2800      	cmp	r0, #0
 800219a:	d0d2      	beq.n	8002142 <HAL_ADC_Start_DMA+0x26>
 800219c:	e7f8      	b.n	8002190 <HAL_ADC_Start_DMA+0x74>
 800219e:	46c0      	nop			@ (mov r8, r8)
 80021a0:	fffff0fe 	.word	0xfffff0fe
 80021a4:	080021b1 	.word	0x080021b1
 80021a8:	08002223 	.word	0x08002223
 80021ac:	0800222f 	.word	0x0800222f

080021b0 <ADC_DMAConvCplt>:
 80021b0:	2250      	movs	r2, #80	@ 0x50
 80021b2:	6a43      	ldr	r3, [r0, #36]	@ 0x24
 80021b4:	b510      	push	{r4, lr}
 80021b6:	6b99      	ldr	r1, [r3, #56]	@ 0x38
 80021b8:	4211      	tst	r1, r2
 80021ba:	d12b      	bne.n	8002214 <ADC_DMAConvCplt+0x64>
 80021bc:	6b99      	ldr	r1, [r3, #56]	@ 0x38
 80021be:	32b1      	adds	r2, #177	@ 0xb1
 80021c0:	32ff      	adds	r2, #255	@ 0xff
 80021c2:	430a      	orrs	r2, r1
 80021c4:	21c0      	movs	r1, #192	@ 0xc0
 80021c6:	639a      	str	r2, [r3, #56]	@ 0x38
 80021c8:	681a      	ldr	r2, [r3, #0]
 80021ca:	0109      	lsls	r1, r1, #4
 80021cc:	68d0      	ldr	r0, [r2, #12]
 80021ce:	4208      	tst	r0, r1
 80021d0:	d113      	bne.n	80021fa <ADC_DMAConvCplt+0x4a>
 80021d2:	7e99      	ldrb	r1, [r3, #26]
 80021d4:	2900      	cmp	r1, #0
 80021d6:	d110      	bne.n	80021fa <ADC_DMAConvCplt+0x4a>
 80021d8:	6811      	ldr	r1, [r2, #0]
 80021da:	0709      	lsls	r1, r1, #28
 80021dc:	d50d      	bpl.n	80021fa <ADC_DMAConvCplt+0x4a>
 80021de:	6891      	ldr	r1, [r2, #8]
 80021e0:	0749      	lsls	r1, r1, #29
 80021e2:	d40e      	bmi.n	8002202 <ADC_DMAConvCplt+0x52>
 80021e4:	200c      	movs	r0, #12
 80021e6:	6851      	ldr	r1, [r2, #4]
 80021e8:	4381      	bics	r1, r0
 80021ea:	6051      	str	r1, [r2, #4]
 80021ec:	6b99      	ldr	r1, [r3, #56]	@ 0x38
 80021ee:	4a0b      	ldr	r2, [pc, #44]	@ (800221c <ADC_DMAConvCplt+0x6c>)
 80021f0:	4011      	ands	r1, r2
 80021f2:	3204      	adds	r2, #4
 80021f4:	32ff      	adds	r2, #255	@ 0xff
 80021f6:	430a      	orrs	r2, r1
 80021f8:	639a      	str	r2, [r3, #56]	@ 0x38
 80021fa:	0018      	movs	r0, r3
 80021fc:	f7ff fd7c 	bl	8001cf8 <HAL_ADC_ConvCpltCallback>
 8002200:	bd10      	pop	{r4, pc}
 8002202:	2220      	movs	r2, #32
 8002204:	6b99      	ldr	r1, [r3, #56]	@ 0x38
 8002206:	430a      	orrs	r2, r1
 8002208:	639a      	str	r2, [r3, #56]	@ 0x38
 800220a:	2201      	movs	r2, #1
 800220c:	6bd9      	ldr	r1, [r3, #60]	@ 0x3c
 800220e:	430a      	orrs	r2, r1
 8002210:	63da      	str	r2, [r3, #60]	@ 0x3c
 8002212:	e7f2      	b.n	80021fa <ADC_DMAConvCplt+0x4a>
 8002214:	6b1b      	ldr	r3, [r3, #48]	@ 0x30
 8002216:	6b1b      	ldr	r3, [r3, #48]	@ 0x30
 8002218:	4798      	blx	r3
 800221a:	e7f1      	b.n	8002200 <ADC_DMAConvCplt+0x50>
 800221c:	fffffefe 	.word	0xfffffefe

08002220 <HAL_ADC_ConvHalfCpltCallback>:
 8002220:	4770      	bx	lr

08002222 <ADC_DMAHalfConvCplt>:
 8002222:	b510      	push	{r4, lr}
 8002224:	6a40      	ldr	r0, [r0, #36]	@ 0x24
 8002226:	f7ff fffb 	bl	8002220 <HAL_ADC_ConvHalfCpltCallback>
 800222a:	bd10      	pop	{r4, pc}

0800222c <HAL_ADC_ErrorCallback>:
 800222c:	4770      	bx	lr

0800222e <ADC_DMAError>:
 800222e:	2340      	movs	r3, #64	@ 0x40
 8002230:	6a40      	ldr	r0, [r0, #36]	@ 0x24
 8002232:	b510      	push	{r4, lr}
 8002234:	6b82      	ldr	r2, [r0, #56]	@ 0x38
 8002236:	4313      	orrs	r3, r2
 8002238:	6383      	str	r3, [r0, #56]	@ 0x38
 800223a:	2304      	movs	r3, #4
 800223c:	6bc2      	ldr	r2, [r0, #60]	@ 0x3c
 800223e:	4313      	orrs	r3, r2
 8002240:	63c3      	str	r3, [r0, #60]	@ 0x3c
 8002242:	f7ff fff3 	bl	800222c <HAL_ADC_ErrorCallback>
 8002246:	bd10      	pop	{r4, pc}

08002248 <HAL_ADC_ConfigChannel>:
 8002248:	b5f7      	push	{r0, r1, r2, r4, r5, r6, r7, lr}
 800224a:	2200      	movs	r2, #0
 800224c:	0004      	movs	r4, r0
 800224e:	9201      	str	r2, [sp, #4]
 8002250:	3434      	adds	r4, #52	@ 0x34
 8002252:	7822      	ldrb	r2, [r4, #0]
 8002254:	0003      	movs	r3, r0
 8002256:	6ac5      	ldr	r5, [r0, #44]	@ 0x2c
 8002258:	2002      	movs	r0, #2
 800225a:	2a01      	cmp	r2, #1
 800225c:	d02a      	beq.n	80022b4 <HAL_ADC_ConfigChannel+0x6c>
 800225e:	3801      	subs	r0, #1
 8002260:	7020      	strb	r0, [r4, #0]
 8002262:	681a      	ldr	r2, [r3, #0]
 8002264:	6896      	ldr	r6, [r2, #8]
 8002266:	0776      	lsls	r6, r6, #29
 8002268:	d45e      	bmi.n	8002328 <HAL_ADC_ConfigChannel+0xe0>
 800226a:	680b      	ldr	r3, [r1, #0]
 800226c:	684f      	ldr	r7, [r1, #4]
 800226e:	001e      	movs	r6, r3
 8002270:	46bc      	mov	ip, r7
 8002272:	4f30      	ldr	r7, [pc, #192]	@ (8002334 <HAL_ADC_ConfigChannel+0xec>)
 8002274:	4098      	lsls	r0, r3
 8002276:	3e10      	subs	r6, #16
 8002278:	45bc      	cmp	ip, r7
 800227a:	d03f      	beq.n	80022fc <HAL_ADC_ConfigChannel+0xb4>
 800227c:	6a97      	ldr	r7, [r2, #40]	@ 0x28
 800227e:	4338      	orrs	r0, r7
 8002280:	6290      	str	r0, [r2, #40]	@ 0x28
 8002282:	2080      	movs	r0, #128	@ 0x80
 8002284:	0540      	lsls	r0, r0, #21
 8002286:	4285      	cmp	r5, r0
 8002288:	d00f      	beq.n	80022aa <HAL_ADC_ConfigChannel+0x62>
 800228a:	3d01      	subs	r5, #1
 800228c:	2d06      	cmp	r5, #6
 800228e:	d90c      	bls.n	80022aa <HAL_ADC_ConfigChannel+0x62>
 8002290:	2007      	movs	r0, #7
 8002292:	6955      	ldr	r5, [r2, #20]
 8002294:	6889      	ldr	r1, [r1, #8]
 8002296:	4005      	ands	r5, r0
 8002298:	42a9      	cmp	r1, r5
 800229a:	d006      	beq.n	80022aa <HAL_ADC_ConfigChannel+0x62>
 800229c:	6955      	ldr	r5, [r2, #20]
 800229e:	4001      	ands	r1, r0
 80022a0:	4385      	bics	r5, r0
 80022a2:	6155      	str	r5, [r2, #20]
 80022a4:	6955      	ldr	r5, [r2, #20]
 80022a6:	4329      	orrs	r1, r5
 80022a8:	6151      	str	r1, [r2, #20]
 80022aa:	2e02      	cmp	r6, #2
 80022ac:	d903      	bls.n	80022b6 <HAL_ADC_ConfigChannel+0x6e>
 80022ae:	2000      	movs	r0, #0
 80022b0:	2300      	movs	r3, #0
 80022b2:	7023      	strb	r3, [r4, #0]
 80022b4:	bdfe      	pop	{r1, r2, r3, r4, r5, r6, r7, pc}
 80022b6:	4820      	ldr	r0, [pc, #128]	@ (8002338 <HAL_ADC_ConfigChannel+0xf0>)
 80022b8:	6801      	ldr	r1, [r0, #0]
 80022ba:	2b10      	cmp	r3, #16
 80022bc:	d01b      	beq.n	80022f6 <HAL_ADC_ConfigChannel+0xae>
 80022be:	001a      	movs	r2, r3
 80022c0:	3a11      	subs	r2, #17
 80022c2:	4255      	negs	r5, r2
 80022c4:	416a      	adcs	r2, r5
 80022c6:	4d1d      	ldr	r5, [pc, #116]	@ (800233c <HAL_ADC_ConfigChannel+0xf4>)
 80022c8:	4252      	negs	r2, r2
 80022ca:	402a      	ands	r2, r5
 80022cc:	2580      	movs	r5, #128	@ 0x80
 80022ce:	046d      	lsls	r5, r5, #17
 80022d0:	1952      	adds	r2, r2, r5
 80022d2:	430a      	orrs	r2, r1
 80022d4:	6002      	str	r2, [r0, #0]
 80022d6:	2b10      	cmp	r3, #16
 80022d8:	d1e9      	bne.n	80022ae <HAL_ADC_ConfigChannel+0x66>
 80022da:	4b19      	ldr	r3, [pc, #100]	@ (8002340 <HAL_ADC_ConfigChannel+0xf8>)
 80022dc:	4919      	ldr	r1, [pc, #100]	@ (8002344 <HAL_ADC_ConfigChannel+0xfc>)
 80022de:	6818      	ldr	r0, [r3, #0]
 80022e0:	f7fd ff2e 	bl	8000140 <__udivsi3>
 80022e4:	230a      	movs	r3, #10
 80022e6:	4343      	muls	r3, r0
 80022e8:	9301      	str	r3, [sp, #4]
 80022ea:	9b01      	ldr	r3, [sp, #4]
 80022ec:	2b00      	cmp	r3, #0
 80022ee:	d0de      	beq.n	80022ae <HAL_ADC_ConfigChannel+0x66>
 80022f0:	9b01      	ldr	r3, [sp, #4]
 80022f2:	3b01      	subs	r3, #1
 80022f4:	e7f8      	b.n	80022e8 <HAL_ADC_ConfigChannel+0xa0>
 80022f6:	2280      	movs	r2, #128	@ 0x80
 80022f8:	0412      	lsls	r2, r2, #16
 80022fa:	e7ea      	b.n	80022d2 <HAL_ADC_ConfigChannel+0x8a>
 80022fc:	6a91      	ldr	r1, [r2, #40]	@ 0x28
 80022fe:	4381      	bics	r1, r0
 8002300:	6291      	str	r1, [r2, #40]	@ 0x28
 8002302:	2e02      	cmp	r6, #2
 8002304:	d8d3      	bhi.n	80022ae <HAL_ADC_ConfigChannel+0x66>
 8002306:	4a0c      	ldr	r2, [pc, #48]	@ (8002338 <HAL_ADC_ConfigChannel+0xf0>)
 8002308:	6811      	ldr	r1, [r2, #0]
 800230a:	2b10      	cmp	r3, #16
 800230c:	d00a      	beq.n	8002324 <HAL_ADC_ConfigChannel+0xdc>
 800230e:	3b11      	subs	r3, #17
 8002310:	1e58      	subs	r0, r3, #1
 8002312:	4183      	sbcs	r3, r0
 8002314:	4809      	ldr	r0, [pc, #36]	@ (800233c <HAL_ADC_ConfigChannel+0xf4>)
 8002316:	425b      	negs	r3, r3
 8002318:	4003      	ands	r3, r0
 800231a:	480b      	ldr	r0, [pc, #44]	@ (8002348 <HAL_ADC_ConfigChannel+0x100>)
 800231c:	181b      	adds	r3, r3, r0
 800231e:	400b      	ands	r3, r1
 8002320:	6013      	str	r3, [r2, #0]
 8002322:	e7c4      	b.n	80022ae <HAL_ADC_ConfigChannel+0x66>
 8002324:	4b09      	ldr	r3, [pc, #36]	@ (800234c <HAL_ADC_ConfigChannel+0x104>)
 8002326:	e7fa      	b.n	800231e <HAL_ADC_ConfigChannel+0xd6>
 8002328:	2220      	movs	r2, #32
 800232a:	6b99      	ldr	r1, [r3, #56]	@ 0x38
 800232c:	430a      	orrs	r2, r1
 800232e:	639a      	str	r2, [r3, #56]	@ 0x38
 8002330:	e7be      	b.n	80022b0 <HAL_ADC_ConfigChannel+0x68>
 8002332:	46c0      	nop			@ (mov r8, r8)
 8002334:	00001001 	.word	0x00001001
 8002338:	40012708 	.word	0x40012708
 800233c:	ff400000 	.word	0xff400000
 8002340:	200000b8 	.word	0x200000b8
 8002344:	000f4240 	.word	0x000f4240
 8002348:	ffbfffff 	.word	0xffbfffff
 800234c:	ff7fffff 	.word	0xff7fffff

08002350 <HAL_ADCEx_Calibration_Start>:
 8002350:	b5f8      	push	{r3, r4, r5, r6, r7, lr}
 8002352:	0006      	movs	r6, r0
 8002354:	3634      	adds	r6, #52	@ 0x34
 8002356:	7833      	ldrb	r3, [r6, #0]
 8002358:	0004      	movs	r4, r0
 800235a:	2002      	movs	r0, #2
 800235c:	2b01      	cmp	r3, #1
 800235e:	d045      	beq.n	80023ec <HAL_ADCEx_Calibration_Start+0x9c>
 8002360:	2301      	movs	r3, #1
 8002362:	2103      	movs	r1, #3
 8002364:	7033      	strb	r3, [r6, #0]
 8002366:	6823      	ldr	r3, [r4, #0]
 8002368:	689a      	ldr	r2, [r3, #8]
 800236a:	400a      	ands	r2, r1
 800236c:	2a01      	cmp	r2, #1
 800236e:	d105      	bne.n	800237c <HAL_ADCEx_Calibration_Start+0x2c>
 8002370:	6819      	ldr	r1, [r3, #0]
 8002372:	4211      	tst	r1, r2
 8002374:	d13b      	bne.n	80023ee <HAL_ADCEx_Calibration_Start+0x9e>
 8002376:	68da      	ldr	r2, [r3, #12]
 8002378:	0412      	lsls	r2, r2, #16
 800237a:	d438      	bmi.n	80023ee <HAL_ADCEx_Calibration_Start+0x9e>
 800237c:	6ba1      	ldr	r1, [r4, #56]	@ 0x38
 800237e:	4a1f      	ldr	r2, [pc, #124]	@ (80023fc <HAL_ADCEx_Calibration_Start+0xac>)
 8002380:	4011      	ands	r1, r2
 8002382:	3206      	adds	r2, #6
 8002384:	32ff      	adds	r2, #255	@ 0xff
 8002386:	430a      	orrs	r2, r1
 8002388:	2103      	movs	r1, #3
 800238a:	63a2      	str	r2, [r4, #56]	@ 0x38
 800238c:	68dd      	ldr	r5, [r3, #12]
 800238e:	68da      	ldr	r2, [r3, #12]
 8002390:	438a      	bics	r2, r1
 8002392:	60da      	str	r2, [r3, #12]
 8002394:	2280      	movs	r2, #128	@ 0x80
 8002396:	6899      	ldr	r1, [r3, #8]
 8002398:	0612      	lsls	r2, r2, #24
 800239a:	430a      	orrs	r2, r1
 800239c:	609a      	str	r2, [r3, #8]
 800239e:	f7ff fdb3 	bl	8001f08 <HAL_GetTick>
 80023a2:	0007      	movs	r7, r0
 80023a4:	6823      	ldr	r3, [r4, #0]
 80023a6:	689a      	ldr	r2, [r3, #8]
 80023a8:	2a00      	cmp	r2, #0
 80023aa:	db0d      	blt.n	80023c8 <HAL_ADCEx_Calibration_Start+0x78>
 80023ac:	2103      	movs	r1, #3
 80023ae:	68da      	ldr	r2, [r3, #12]
 80023b0:	400d      	ands	r5, r1
 80023b2:	4315      	orrs	r5, r2
 80023b4:	60dd      	str	r5, [r3, #12]
 80023b6:	2301      	movs	r3, #1
 80023b8:	2000      	movs	r0, #0
 80023ba:	6ba2      	ldr	r2, [r4, #56]	@ 0x38
 80023bc:	438a      	bics	r2, r1
 80023be:	4313      	orrs	r3, r2
 80023c0:	63a3      	str	r3, [r4, #56]	@ 0x38
 80023c2:	2300      	movs	r3, #0
 80023c4:	7033      	strb	r3, [r6, #0]
 80023c6:	e011      	b.n	80023ec <HAL_ADCEx_Calibration_Start+0x9c>
 80023c8:	f7ff fd9e 	bl	8001f08 <HAL_GetTick>
 80023cc:	1bc0      	subs	r0, r0, r7
 80023ce:	2802      	cmp	r0, #2
 80023d0:	d9e8      	bls.n	80023a4 <HAL_ADCEx_Calibration_Start+0x54>
 80023d2:	6823      	ldr	r3, [r4, #0]
 80023d4:	689b      	ldr	r3, [r3, #8]
 80023d6:	2b00      	cmp	r3, #0
 80023d8:	dae4      	bge.n	80023a4 <HAL_ADCEx_Calibration_Start+0x54>
 80023da:	2312      	movs	r3, #18
 80023dc:	6ba2      	ldr	r2, [r4, #56]	@ 0x38
 80023de:	2001      	movs	r0, #1
 80023e0:	439a      	bics	r2, r3
 80023e2:	3b02      	subs	r3, #2
 80023e4:	4313      	orrs	r3, r2
 80023e6:	63a3      	str	r3, [r4, #56]	@ 0x38
 80023e8:	2300      	movs	r3, #0
 80023ea:	7033      	strb	r3, [r6, #0]
 80023ec:	bdf8      	pop	{r3, r4, r5, r6, r7, pc}
 80023ee:	2320      	movs	r3, #32
 80023f0:	6ba2      	ldr	r2, [r4, #56]	@ 0x38
 80023f2:	2001      	movs	r0, #1
 80023f4:	4313      	orrs	r3, r2
 80023f6:	63a3      	str	r3, [r4, #56]	@ 0x38
 80023f8:	e7e3      	b.n	80023c2 <HAL_ADCEx_Calibration_Start+0x72>
 80023fa:	46c0      	nop			@ (mov r8, r8)
 80023fc:	fffffefd 	.word	0xfffffefd

08002400 <HAL_NVIC_SetPriority>:
 8002400:	b510      	push	{r4, lr}
 8002402:	24ff      	movs	r4, #255	@ 0xff
 8002404:	2203      	movs	r2, #3
 8002406:	000b      	movs	r3, r1
 8002408:	0021      	movs	r1, r4
 800240a:	4002      	ands	r2, r0
 800240c:	00d2      	lsls	r2, r2, #3
 800240e:	4091      	lsls	r1, r2
 8002410:	019b      	lsls	r3, r3, #6
 8002412:	4023      	ands	r3, r4
 8002414:	43c9      	mvns	r1, r1
 8002416:	4093      	lsls	r3, r2
 8002418:	2800      	cmp	r0, #0
 800241a:	db0a      	blt.n	8002432 <HAL_NVIC_SetPriority+0x32>
 800241c:	24c0      	movs	r4, #192	@ 0xc0
 800241e:	4a0b      	ldr	r2, [pc, #44]	@ (800244c <HAL_NVIC_SetPriority+0x4c>)
 8002420:	0880      	lsrs	r0, r0, #2
 8002422:	0080      	lsls	r0, r0, #2
 8002424:	1880      	adds	r0, r0, r2
 8002426:	00a4      	lsls	r4, r4, #2
 8002428:	5902      	ldr	r2, [r0, r4]
 800242a:	400a      	ands	r2, r1
 800242c:	4313      	orrs	r3, r2
 800242e:	5103      	str	r3, [r0, r4]
 8002430:	bd10      	pop	{r4, pc}
 8002432:	220f      	movs	r2, #15
 8002434:	4010      	ands	r0, r2
 8002436:	3808      	subs	r0, #8
 8002438:	4a05      	ldr	r2, [pc, #20]	@ (8002450 <HAL_NVIC_SetPriority+0x50>)
 800243a:	0880      	lsrs	r0, r0, #2
 800243c:	0080      	lsls	r0, r0, #2
 800243e:	1880      	adds	r0, r0, r2
 8002440:	69c2      	ldr	r2, [r0, #28]
 8002442:	4011      	ands	r1, r2
 8002444:	4319      	orrs	r1, r3
 8002446:	61c1      	str	r1, [r0, #28]
 8002448:	e7f2      	b.n	8002430 <HAL_NVIC_SetPriority+0x30>
 800244a:	46c0      	nop			@ (mov r8, r8)
 800244c:	e000e100 	.word	0xe000e100
 8002450:	e000ed00 	.word	0xe000ed00

08002454 <HAL_NVIC_EnableIRQ>:
 8002454:	2800      	cmp	r0, #0
 8002456:	db05      	blt.n	8002464 <HAL_NVIC_EnableIRQ+0x10>
 8002458:	231f      	movs	r3, #31
 800245a:	4018      	ands	r0, r3
 800245c:	3b1e      	subs	r3, #30
 800245e:	4083      	lsls	r3, r0
 8002460:	4a01      	ldr	r2, [pc, #4]	@ (8002468 <HAL_NVIC_EnableIRQ+0x14>)
 8002462:	6013      	str	r3, [r2, #0]
 8002464:	4770      	bx	lr
 8002466:	46c0      	nop			@ (mov r8, r8)
 8002468:	e000e100 	.word	0xe000e100

0800246c <HAL_SYSTICK_Config>:
 800246c:	2280      	movs	r2, #128	@ 0x80
 800246e:	1e43      	subs	r3, r0, #1
 8002470:	0452      	lsls	r2, r2, #17
 8002472:	2001      	movs	r0, #1
 8002474:	4293      	cmp	r3, r2
 8002476:	d20d      	bcs.n	8002494 <HAL_SYSTICK_Config+0x28>
 8002478:	21c0      	movs	r1, #192	@ 0xc0
 800247a:	4a07      	ldr	r2, [pc, #28]	@ (8002498 <HAL_SYSTICK_Config+0x2c>)
 800247c:	4807      	ldr	r0, [pc, #28]	@ (800249c <HAL_SYSTICK_Config+0x30>)
 800247e:	6053      	str	r3, [r2, #4]
 8002480:	6a03      	ldr	r3, [r0, #32]
 8002482:	0609      	lsls	r1, r1, #24
 8002484:	021b      	lsls	r3, r3, #8
 8002486:	0a1b      	lsrs	r3, r3, #8
 8002488:	430b      	orrs	r3, r1
 800248a:	6203      	str	r3, [r0, #32]
 800248c:	2000      	movs	r0, #0
 800248e:	2307      	movs	r3, #7
 8002490:	6090      	str	r0, [r2, #8]
 8002492:	6013      	str	r3, [r2, #0]
 8002494:	4770      	bx	lr
 8002496:	46c0      	nop			@ (mov r8, r8)
 8002498:	e000e010 	.word	0xe000e010
 800249c:	e000ed00 	.word	0xe000ed00

080024a0 <HAL_DMA_Init>:
 80024a0:	b570      	push	{r4, r5, r6, lr}
 80024a2:	0004      	movs	r4, r0
 80024a4:	2001      	movs	r0, #1
 80024a6:	2c00      	cmp	r4, #0
 80024a8:	d024      	beq.n	80024f4 <HAL_DMA_Init+0x54>
 80024aa:	2302      	movs	r3, #2
 80024ac:	1ca5      	adds	r5, r4, #2
 80024ae:	77eb      	strb	r3, [r5, #31]
 80024b0:	6820      	ldr	r0, [r4, #0]
 80024b2:	4b11      	ldr	r3, [pc, #68]	@ (80024f8 <HAL_DMA_Init+0x58>)
 80024b4:	6802      	ldr	r2, [r0, #0]
 80024b6:	68a1      	ldr	r1, [r4, #8]
 80024b8:	401a      	ands	r2, r3
 80024ba:	6863      	ldr	r3, [r4, #4]
 80024bc:	430b      	orrs	r3, r1
 80024be:	68e1      	ldr	r1, [r4, #12]
 80024c0:	430b      	orrs	r3, r1
 80024c2:	6921      	ldr	r1, [r4, #16]
 80024c4:	430b      	orrs	r3, r1
 80024c6:	6961      	ldr	r1, [r4, #20]
 80024c8:	430b      	orrs	r3, r1
 80024ca:	69a1      	ldr	r1, [r4, #24]
 80024cc:	430b      	orrs	r3, r1
 80024ce:	69e1      	ldr	r1, [r4, #28]
 80024d0:	430b      	orrs	r3, r1
 80024d2:	4313      	orrs	r3, r2
 80024d4:	6003      	str	r3, [r0, #0]
 80024d6:	4b09      	ldr	r3, [pc, #36]	@ (80024fc <HAL_DMA_Init+0x5c>)
 80024d8:	2114      	movs	r1, #20
 80024da:	18c0      	adds	r0, r0, r3
 80024dc:	f7fd fe30 	bl	8000140 <__udivsi3>
 80024e0:	4b07      	ldr	r3, [pc, #28]	@ (8002500 <HAL_DMA_Init+0x60>)
 80024e2:	0080      	lsls	r0, r0, #2
 80024e4:	6420      	str	r0, [r4, #64]	@ 0x40
 80024e6:	63e3      	str	r3, [r4, #60]	@ 0x3c
 80024e8:	2000      	movs	r0, #0
 80024ea:	2301      	movs	r3, #1
 80024ec:	63a0      	str	r0, [r4, #56]	@ 0x38
 80024ee:	18e4      	adds	r4, r4, r3
 80024f0:	77eb      	strb	r3, [r5, #31]
 80024f2:	77e0      	strb	r0, [r4, #31]
 80024f4:	bd70      	pop	{r4, r5, r6, pc}
 80024f6:	46c0      	nop			@ (mov r8, r8)
 80024f8:	ffffc00f 	.word	0xffffc00f
 80024fc:	bffdfff8 	.word	0xbffdfff8
 8002500:	40020000 	.word	0x40020000

08002504 <HAL_DMA_Start_IT>:
 8002504:	b5f7      	push	{r0, r1, r2, r4, r5, r6, r7, lr}
 8002506:	1c44      	adds	r4, r0, #1
 8002508:	9301      	str	r3, [sp, #4]
 800250a:	7fe5      	ldrb	r5, [r4, #31]
 800250c:	2d01      	cmp	r5, #1
 800250e:	d033      	beq.n	8002578 <HAL_DMA_Start_IT+0x74>
 8002510:	2501      	movs	r5, #1
 8002512:	1c87      	adds	r7, r0, #2
 8002514:	77e5      	strb	r5, [r4, #31]
 8002516:	7ffd      	ldrb	r5, [r7, #31]
 8002518:	2600      	movs	r6, #0
 800251a:	46ac      	mov	ip, r5
 800251c:	4663      	mov	r3, ip
 800251e:	b2ed      	uxtb	r5, r5
 8002520:	2b01      	cmp	r3, #1
 8002522:	d128      	bne.n	8002576 <HAL_DMA_Start_IT+0x72>
 8002524:	2402      	movs	r4, #2
 8002526:	77fc      	strb	r4, [r7, #31]
 8002528:	6804      	ldr	r4, [r0, #0]
 800252a:	6386      	str	r6, [r0, #56]	@ 0x38
 800252c:	6826      	ldr	r6, [r4, #0]
 800252e:	6c07      	ldr	r7, [r0, #64]	@ 0x40
 8002530:	43ae      	bics	r6, r5
 8002532:	40bd      	lsls	r5, r7
 8002534:	6026      	str	r6, [r4, #0]
 8002536:	9b01      	ldr	r3, [sp, #4]
 8002538:	6bc6      	ldr	r6, [r0, #60]	@ 0x3c
 800253a:	6075      	str	r5, [r6, #4]
 800253c:	6063      	str	r3, [r4, #4]
 800253e:	6843      	ldr	r3, [r0, #4]
 8002540:	2b10      	cmp	r3, #16
 8002542:	d10e      	bne.n	8002562 <HAL_DMA_Start_IT+0x5e>
 8002544:	60a2      	str	r2, [r4, #8]
 8002546:	60e1      	str	r1, [r4, #12]
 8002548:	6ac3      	ldr	r3, [r0, #44]	@ 0x2c
 800254a:	6822      	ldr	r2, [r4, #0]
 800254c:	2b00      	cmp	r3, #0
 800254e:	d00b      	beq.n	8002568 <HAL_DMA_Start_IT+0x64>
 8002550:	230e      	movs	r3, #14
 8002552:	4313      	orrs	r3, r2
 8002554:	6023      	str	r3, [r4, #0]
 8002556:	2301      	movs	r3, #1
 8002558:	2000      	movs	r0, #0
 800255a:	6822      	ldr	r2, [r4, #0]
 800255c:	4313      	orrs	r3, r2
 800255e:	6023      	str	r3, [r4, #0]
 8002560:	bdfe      	pop	{r1, r2, r3, r4, r5, r6, r7, pc}
 8002562:	60a1      	str	r1, [r4, #8]
 8002564:	60e2      	str	r2, [r4, #12]
 8002566:	e7ef      	b.n	8002548 <HAL_DMA_Start_IT+0x44>
 8002568:	230a      	movs	r3, #10
 800256a:	4313      	orrs	r3, r2
 800256c:	2204      	movs	r2, #4
 800256e:	6023      	str	r3, [r4, #0]
 8002570:	6823      	ldr	r3, [r4, #0]
 8002572:	4393      	bics	r3, r2
 8002574:	e7ee      	b.n	8002554 <HAL_DMA_Start_IT+0x50>
 8002576:	77e6      	strb	r6, [r4, #31]
 8002578:	2002      	movs	r0, #2
 800257a:	e7f1      	b.n	8002560 <HAL_DMA_Start_IT+0x5c>

0800257c <HAL_DMA_IRQHandler>:
 800257c:	b5f8      	push	{r3, r4, r5, r6, r7, lr}
 800257e:	2704      	movs	r7, #4
 8002580:	003e      	movs	r6, r7
 8002582:	6c01      	ldr	r1, [r0, #64]	@ 0x40
 8002584:	6bc2      	ldr	r2, [r0, #60]	@ 0x3c
 8002586:	408e      	lsls	r6, r1
 8002588:	6815      	ldr	r5, [r2, #0]
 800258a:	6803      	ldr	r3, [r0, #0]
 800258c:	681c      	ldr	r4, [r3, #0]
 800258e:	4235      	tst	r5, r6
 8002590:	d00d      	beq.n	80025ae <HAL_DMA_IRQHandler+0x32>
 8002592:	423c      	tst	r4, r7
 8002594:	d00b      	beq.n	80025ae <HAL_DMA_IRQHandler+0x32>
 8002596:	6819      	ldr	r1, [r3, #0]
 8002598:	0689      	lsls	r1, r1, #26
 800259a:	d402      	bmi.n	80025a2 <HAL_DMA_IRQHandler+0x26>
 800259c:	6819      	ldr	r1, [r3, #0]
 800259e:	43b9      	bics	r1, r7
 80025a0:	6019      	str	r1, [r3, #0]
 80025a2:	6ac3      	ldr	r3, [r0, #44]	@ 0x2c
 80025a4:	6056      	str	r6, [r2, #4]
 80025a6:	2b00      	cmp	r3, #0
 80025a8:	d019      	beq.n	80025de <HAL_DMA_IRQHandler+0x62>
 80025aa:	4798      	blx	r3
 80025ac:	e017      	b.n	80025de <HAL_DMA_IRQHandler+0x62>
 80025ae:	2702      	movs	r7, #2
 80025b0:	003e      	movs	r6, r7
 80025b2:	408e      	lsls	r6, r1
 80025b4:	4235      	tst	r5, r6
 80025b6:	d013      	beq.n	80025e0 <HAL_DMA_IRQHandler+0x64>
 80025b8:	423c      	tst	r4, r7
 80025ba:	d011      	beq.n	80025e0 <HAL_DMA_IRQHandler+0x64>
 80025bc:	6819      	ldr	r1, [r3, #0]
 80025be:	0689      	lsls	r1, r1, #26
 80025c0:	d406      	bmi.n	80025d0 <HAL_DMA_IRQHandler+0x54>
 80025c2:	240a      	movs	r4, #10
 80025c4:	6819      	ldr	r1, [r3, #0]
 80025c6:	43a1      	bics	r1, r4
 80025c8:	6019      	str	r1, [r3, #0]
 80025ca:	2101      	movs	r1, #1
 80025cc:	19c3      	adds	r3, r0, r7
 80025ce:	77d9      	strb	r1, [r3, #31]
 80025d0:	6056      	str	r6, [r2, #4]
 80025d2:	2200      	movs	r2, #0
 80025d4:	1c43      	adds	r3, r0, #1
 80025d6:	77da      	strb	r2, [r3, #31]
 80025d8:	6a83      	ldr	r3, [r0, #40]	@ 0x28
 80025da:	4293      	cmp	r3, r2
 80025dc:	d1e5      	bne.n	80025aa <HAL_DMA_IRQHandler+0x2e>
 80025de:	bdf8      	pop	{r3, r4, r5, r6, r7, pc}
 80025e0:	2608      	movs	r6, #8
 80025e2:	0037      	movs	r7, r6
 80025e4:	408f      	lsls	r7, r1
 80025e6:	423d      	tst	r5, r7
 80025e8:	d0f9      	beq.n	80025de <HAL_DMA_IRQHandler+0x62>
 80025ea:	4234      	tst	r4, r6
 80025ec:	d0f7      	beq.n	80025de <HAL_DMA_IRQHandler+0x62>
 80025ee:	250e      	movs	r5, #14
 80025f0:	681c      	ldr	r4, [r3, #0]
 80025f2:	43ac      	bics	r4, r5
 80025f4:	601c      	str	r4, [r3, #0]
 80025f6:	2301      	movs	r3, #1
 80025f8:	001c      	movs	r4, r3
 80025fa:	408c      	lsls	r4, r1
 80025fc:	6054      	str	r4, [r2, #4]
 80025fe:	1c82      	adds	r2, r0, #2
 8002600:	6383      	str	r3, [r0, #56]	@ 0x38
 8002602:	77d3      	strb	r3, [r2, #31]
 8002604:	2200      	movs	r2, #0
 8002606:	18c3      	adds	r3, r0, r3
 8002608:	77da      	strb	r2, [r3, #31]
 800260a:	6b03      	ldr	r3, [r0, #48]	@ 0x30
 800260c:	e7e5      	b.n	80025da <HAL_DMA_IRQHandler+0x5e>
	...

08002610 <HAL_GPIO_Init>:
 8002610:	2300      	movs	r3, #0
 8002612:	b5f0      	push	{r4, r5, r6, r7, lr}
 8002614:	b087      	sub	sp, #28
 8002616:	680a      	ldr	r2, [r1, #0]
 8002618:	0014      	movs	r4, r2
 800261a:	40dc      	lsrs	r4, r3
 800261c:	d101      	bne.n	8002622 <HAL_GPIO_Init+0x12>
 800261e:	b007      	add	sp, #28
 8002620:	bdf0      	pop	{r4, r5, r6, r7, pc}
 8002622:	2501      	movs	r5, #1
 8002624:	0014      	movs	r4, r2
 8002626:	409d      	lsls	r5, r3
 8002628:	402c      	ands	r4, r5
 800262a:	9400      	str	r4, [sp, #0]
 800262c:	422a      	tst	r2, r5
 800262e:	d100      	bne.n	8002632 <HAL_GPIO_Init+0x22>
 8002630:	e09c      	b.n	800276c <HAL_GPIO_Init+0x15c>
 8002632:	684a      	ldr	r2, [r1, #4]
 8002634:	005f      	lsls	r7, r3, #1
 8002636:	4694      	mov	ip, r2
 8002638:	2203      	movs	r2, #3
 800263a:	4664      	mov	r4, ip
 800263c:	4022      	ands	r2, r4
 800263e:	2403      	movs	r4, #3
 8002640:	40bc      	lsls	r4, r7
 8002642:	43e4      	mvns	r4, r4
 8002644:	9401      	str	r4, [sp, #4]
 8002646:	1e54      	subs	r4, r2, #1
 8002648:	2c01      	cmp	r4, #1
 800264a:	d82e      	bhi.n	80026aa <HAL_GPIO_Init+0x9a>
 800264c:	6886      	ldr	r6, [r0, #8]
 800264e:	9c01      	ldr	r4, [sp, #4]
 8002650:	4026      	ands	r6, r4
 8002652:	68cc      	ldr	r4, [r1, #12]
 8002654:	40bc      	lsls	r4, r7
 8002656:	4334      	orrs	r4, r6
 8002658:	6084      	str	r4, [r0, #8]
 800265a:	6844      	ldr	r4, [r0, #4]
 800265c:	2601      	movs	r6, #1
 800265e:	43ac      	bics	r4, r5
 8002660:	0025      	movs	r5, r4
 8002662:	4664      	mov	r4, ip
 8002664:	0924      	lsrs	r4, r4, #4
 8002666:	4034      	ands	r4, r6
 8002668:	409c      	lsls	r4, r3
 800266a:	432c      	orrs	r4, r5
 800266c:	6044      	str	r4, [r0, #4]
 800266e:	68c5      	ldr	r5, [r0, #12]
 8002670:	9c01      	ldr	r4, [sp, #4]
 8002672:	4025      	ands	r5, r4
 8002674:	688c      	ldr	r4, [r1, #8]
 8002676:	40bc      	lsls	r4, r7
 8002678:	432c      	orrs	r4, r5
 800267a:	60c4      	str	r4, [r0, #12]
 800267c:	2a02      	cmp	r2, #2
 800267e:	d116      	bne.n	80026ae <HAL_GPIO_Init+0x9e>
 8002680:	2507      	movs	r5, #7
 8002682:	260f      	movs	r6, #15
 8002684:	401d      	ands	r5, r3
 8002686:	00ad      	lsls	r5, r5, #2
 8002688:	40ae      	lsls	r6, r5
 800268a:	08dc      	lsrs	r4, r3, #3
 800268c:	00a4      	lsls	r4, r4, #2
 800268e:	1904      	adds	r4, r0, r4
 8002690:	9402      	str	r4, [sp, #8]
 8002692:	6a24      	ldr	r4, [r4, #32]
 8002694:	9603      	str	r6, [sp, #12]
 8002696:	0026      	movs	r6, r4
 8002698:	9c03      	ldr	r4, [sp, #12]
 800269a:	43a6      	bics	r6, r4
 800269c:	0034      	movs	r4, r6
 800269e:	690e      	ldr	r6, [r1, #16]
 80026a0:	40ae      	lsls	r6, r5
 80026a2:	4326      	orrs	r6, r4
 80026a4:	9c02      	ldr	r4, [sp, #8]
 80026a6:	6226      	str	r6, [r4, #32]
 80026a8:	e001      	b.n	80026ae <HAL_GPIO_Init+0x9e>
 80026aa:	2a03      	cmp	r2, #3
 80026ac:	d1df      	bne.n	800266e <HAL_GPIO_Init+0x5e>
 80026ae:	40ba      	lsls	r2, r7
 80026b0:	6804      	ldr	r4, [r0, #0]
 80026b2:	9d01      	ldr	r5, [sp, #4]
 80026b4:	4025      	ands	r5, r4
 80026b6:	432a      	orrs	r2, r5
 80026b8:	24c0      	movs	r4, #192	@ 0xc0
 80026ba:	6002      	str	r2, [r0, #0]
 80026bc:	4662      	mov	r2, ip
 80026be:	02a4      	lsls	r4, r4, #10
 80026c0:	4222      	tst	r2, r4
 80026c2:	d053      	beq.n	800276c <HAL_GPIO_Init+0x15c>
 80026c4:	2501      	movs	r5, #1
 80026c6:	4a2a      	ldr	r2, [pc, #168]	@ (8002770 <HAL_GPIO_Init+0x160>)
 80026c8:	2790      	movs	r7, #144	@ 0x90
 80026ca:	6994      	ldr	r4, [r2, #24]
 80026cc:	05ff      	lsls	r7, r7, #23
 80026ce:	432c      	orrs	r4, r5
 80026d0:	6194      	str	r4, [r2, #24]
 80026d2:	6992      	ldr	r2, [r2, #24]
 80026d4:	089c      	lsrs	r4, r3, #2
 80026d6:	402a      	ands	r2, r5
 80026d8:	9205      	str	r2, [sp, #20]
 80026da:	9a05      	ldr	r2, [sp, #20]
 80026dc:	4a25      	ldr	r2, [pc, #148]	@ (8002774 <HAL_GPIO_Init+0x164>)
 80026de:	00a4      	lsls	r4, r4, #2
 80026e0:	18a4      	adds	r4, r4, r2
 80026e2:	220f      	movs	r2, #15
 80026e4:	3502      	adds	r5, #2
 80026e6:	401d      	ands	r5, r3
 80026e8:	00ad      	lsls	r5, r5, #2
 80026ea:	40aa      	lsls	r2, r5
 80026ec:	68a6      	ldr	r6, [r4, #8]
 80026ee:	4396      	bics	r6, r2
 80026f0:	2200      	movs	r2, #0
 80026f2:	42b8      	cmp	r0, r7
 80026f4:	d010      	beq.n	8002718 <HAL_GPIO_Init+0x108>
 80026f6:	4f20      	ldr	r7, [pc, #128]	@ (8002778 <HAL_GPIO_Init+0x168>)
 80026f8:	3201      	adds	r2, #1
 80026fa:	42b8      	cmp	r0, r7
 80026fc:	d00c      	beq.n	8002718 <HAL_GPIO_Init+0x108>
 80026fe:	4f1f      	ldr	r7, [pc, #124]	@ (800277c <HAL_GPIO_Init+0x16c>)
 8002700:	3201      	adds	r2, #1
 8002702:	42b8      	cmp	r0, r7
 8002704:	d008      	beq.n	8002718 <HAL_GPIO_Init+0x108>
 8002706:	4f1e      	ldr	r7, [pc, #120]	@ (8002780 <HAL_GPIO_Init+0x170>)
 8002708:	3201      	adds	r2, #1
 800270a:	42b8      	cmp	r0, r7
 800270c:	d004      	beq.n	8002718 <HAL_GPIO_Init+0x108>
 800270e:	4a1d      	ldr	r2, [pc, #116]	@ (8002784 <HAL_GPIO_Init+0x174>)
 8002710:	1882      	adds	r2, r0, r2
 8002712:	1e57      	subs	r7, r2, #1
 8002714:	41ba      	sbcs	r2, r7
 8002716:	3204      	adds	r2, #4
 8002718:	40aa      	lsls	r2, r5
 800271a:	4667      	mov	r7, ip
 800271c:	4332      	orrs	r2, r6
 800271e:	60a2      	str	r2, [r4, #8]
 8002720:	4a19      	ldr	r2, [pc, #100]	@ (8002788 <HAL_GPIO_Init+0x178>)
 8002722:	9c00      	ldr	r4, [sp, #0]
 8002724:	6816      	ldr	r6, [r2, #0]
 8002726:	9d00      	ldr	r5, [sp, #0]
 8002728:	43e4      	mvns	r4, r4
 800272a:	4335      	orrs	r5, r6
 800272c:	03ff      	lsls	r7, r7, #15
 800272e:	d401      	bmi.n	8002734 <HAL_GPIO_Init+0x124>
 8002730:	0035      	movs	r5, r6
 8002732:	4025      	ands	r5, r4
 8002734:	4667      	mov	r7, ip
 8002736:	6015      	str	r5, [r2, #0]
 8002738:	6856      	ldr	r6, [r2, #4]
 800273a:	9d00      	ldr	r5, [sp, #0]
 800273c:	4335      	orrs	r5, r6
 800273e:	03bf      	lsls	r7, r7, #14
 8002740:	d401      	bmi.n	8002746 <HAL_GPIO_Init+0x136>
 8002742:	0035      	movs	r5, r6
 8002744:	4025      	ands	r5, r4
 8002746:	4667      	mov	r7, ip
 8002748:	6055      	str	r5, [r2, #4]
 800274a:	6896      	ldr	r6, [r2, #8]
 800274c:	9d00      	ldr	r5, [sp, #0]
 800274e:	4335      	orrs	r5, r6
 8002750:	02ff      	lsls	r7, r7, #11
 8002752:	d401      	bmi.n	8002758 <HAL_GPIO_Init+0x148>
 8002754:	0035      	movs	r5, r6
 8002756:	4025      	ands	r5, r4
 8002758:	4667      	mov	r7, ip
 800275a:	6095      	str	r5, [r2, #8]
 800275c:	68d5      	ldr	r5, [r2, #12]
 800275e:	9e00      	ldr	r6, [sp, #0]
 8002760:	432e      	orrs	r6, r5
 8002762:	02bf      	lsls	r7, r7, #10
 8002764:	d401      	bmi.n	800276a <HAL_GPIO_Init+0x15a>
 8002766:	4025      	ands	r5, r4
 8002768:	002e      	movs	r6, r5
 800276a:	60d6      	str	r6, [r2, #12]
 800276c:	3301      	adds	r3, #1
 800276e:	e752      	b.n	8002616 <HAL_GPIO_Init+0x6>
 8002770:	40021000 	.word	0x40021000
 8002774:	40010000 	.word	0x40010000
 8002778:	48000400 	.word	0x48000400
 800277c:	48000800 	.word	0x48000800
 8002780:	48000c00 	.word	0x48000c00
 8002784:	b7fff000 	.word	0xb7fff000
 8002788:	40010400 	.word	0x40010400

0800278c <HAL_GPIO_ReadPin>:
 800278c:	6900      	ldr	r0, [r0, #16]
 800278e:	4008      	ands	r0, r1
 8002790:	1e43      	subs	r3, r0, #1
 8002792:	4198      	sbcs	r0, r3
 8002794:	b2c0      	uxtb	r0, r0
 8002796:	4770      	bx	lr

08002798 <HAL_GPIO_WritePin>:
 8002798:	2a00      	cmp	r2, #0
 800279a:	d001      	beq.n	80027a0 <HAL_GPIO_WritePin+0x8>
 800279c:	6181      	str	r1, [r0, #24]
 800279e:	4770      	bx	lr
 80027a0:	6281      	str	r1, [r0, #40]	@ 0x28
 80027a2:	e7fc      	b.n	800279e <HAL_GPIO_WritePin+0x6>

080027a4 <HAL_GPIO_EXTI_IRQHandler>:
 80027a4:	4b04      	ldr	r3, [pc, #16]	@ (80027b8 <HAL_GPIO_EXTI_IRQHandler+0x14>)
 80027a6:	b510      	push	{r4, lr}
 80027a8:	695a      	ldr	r2, [r3, #20]
 80027aa:	4210      	tst	r0, r2
 80027ac:	d002      	beq.n	80027b4 <HAL_GPIO_EXTI_IRQHandler+0x10>
 80027ae:	6158      	str	r0, [r3, #20]
 80027b0:	f7ff f99c 	bl	8001aec <HAL_GPIO_EXTI_Callback>
 80027b4:	bd10      	pop	{r4, pc}
 80027b6:	46c0      	nop			@ (mov r8, r8)
 80027b8:	40010400 	.word	0x40010400

080027bc <I2C_Flush_TXDR>:
 80027bc:	6803      	ldr	r3, [r0, #0]
 80027be:	699a      	ldr	r2, [r3, #24]
 80027c0:	0792      	lsls	r2, r2, #30
 80027c2:	d501      	bpl.n	80027c8 <I2C_Flush_TXDR+0xc>
 80027c4:	2200      	movs	r2, #0
 80027c6:	629a      	str	r2, [r3, #40]	@ 0x28
 80027c8:	2201      	movs	r2, #1
 80027ca:	6999      	ldr	r1, [r3, #24]
 80027cc:	4211      	tst	r1, r2
 80027ce:	d102      	bne.n	80027d6 <I2C_Flush_TXDR+0x1a>
 80027d0:	6999      	ldr	r1, [r3, #24]
 80027d2:	430a      	orrs	r2, r1
 80027d4:	619a      	str	r2, [r3, #24]
 80027d6:	4770      	bx	lr

080027d8 <I2C_TransferConfig>:
 80027d8:	b530      	push	{r4, r5, lr}
 80027da:	9c03      	ldr	r4, [sp, #12]
 80027dc:	0412      	lsls	r2, r2, #16
 80027de:	6800      	ldr	r0, [r0, #0]
 80027e0:	4322      	orrs	r2, r4
 80027e2:	431a      	orrs	r2, r3
 80027e4:	4b05      	ldr	r3, [pc, #20]	@ (80027fc <I2C_TransferConfig+0x24>)
 80027e6:	6845      	ldr	r5, [r0, #4]
 80027e8:	0d64      	lsrs	r4, r4, #21
 80027ea:	0589      	lsls	r1, r1, #22
 80027ec:	0d89      	lsrs	r1, r1, #22
 80027ee:	4323      	orrs	r3, r4
 80027f0:	439d      	bics	r5, r3
 80027f2:	430a      	orrs	r2, r1
 80027f4:	432a      	orrs	r2, r5
 80027f6:	6042      	str	r2, [r0, #4]
 80027f8:	bd30      	pop	{r4, r5, pc}
 80027fa:	46c0      	nop			@ (mov r8, r8)
 80027fc:	03ff63ff 	.word	0x03ff63ff

08002800 <I2C_IsAcknowledgeFailed>:
 8002800:	b5f7      	push	{r0, r1, r2, r4, r5, r6, r7, lr}
 8002802:	6803      	ldr	r3, [r0, #0]
 8002804:	9201      	str	r2, [sp, #4]
 8002806:	699a      	ldr	r2, [r3, #24]
 8002808:	0004      	movs	r4, r0
 800280a:	000e      	movs	r6, r1
 800280c:	2000      	movs	r0, #0
 800280e:	06d2      	lsls	r2, r2, #27
 8002810:	d535      	bpl.n	800287e <I2C_IsAcknowledgeFailed+0x7e>
 8002812:	685a      	ldr	r2, [r3, #4]
 8002814:	0192      	lsls	r2, r2, #6
 8002816:	d404      	bmi.n	8002822 <I2C_IsAcknowledgeFailed+0x22>
 8002818:	2280      	movs	r2, #128	@ 0x80
 800281a:	6859      	ldr	r1, [r3, #4]
 800281c:	01d2      	lsls	r2, r2, #7
 800281e:	430a      	orrs	r2, r1
 8002820:	605a      	str	r2, [r3, #4]
 8002822:	2720      	movs	r7, #32
 8002824:	6825      	ldr	r5, [r4, #0]
 8002826:	69ab      	ldr	r3, [r5, #24]
 8002828:	423b      	tst	r3, r7
 800282a:	d011      	beq.n	8002850 <I2C_IsAcknowledgeFailed+0x50>
 800282c:	2310      	movs	r3, #16
 800282e:	0020      	movs	r0, r4
 8002830:	61eb      	str	r3, [r5, #28]
 8002832:	61ef      	str	r7, [r5, #28]
 8002834:	f7ff ffc2 	bl	80027bc <I2C_Flush_TXDR>
 8002838:	686b      	ldr	r3, [r5, #4]
 800283a:	4a11      	ldr	r2, [pc, #68]	@ (8002880 <I2C_IsAcknowledgeFailed+0x80>)
 800283c:	4013      	ands	r3, r2
 800283e:	606b      	str	r3, [r5, #4]
 8002840:	2304      	movs	r3, #4
 8002842:	6c62      	ldr	r2, [r4, #68]	@ 0x44
 8002844:	4313      	orrs	r3, r2
 8002846:	6463      	str	r3, [r4, #68]	@ 0x44
 8002848:	0023      	movs	r3, r4
 800284a:	3341      	adds	r3, #65	@ 0x41
 800284c:	701f      	strb	r7, [r3, #0]
 800284e:	e010      	b.n	8002872 <I2C_IsAcknowledgeFailed+0x72>
 8002850:	1c73      	adds	r3, r6, #1
 8002852:	d0e8      	beq.n	8002826 <I2C_IsAcknowledgeFailed+0x26>
 8002854:	f7ff fb58 	bl	8001f08 <HAL_GetTick>
 8002858:	9b01      	ldr	r3, [sp, #4]
 800285a:	1ac0      	subs	r0, r0, r3
 800285c:	4286      	cmp	r6, r0
 800285e:	d301      	bcc.n	8002864 <I2C_IsAcknowledgeFailed+0x64>
 8002860:	2e00      	cmp	r6, #0
 8002862:	d1df      	bne.n	8002824 <I2C_IsAcknowledgeFailed+0x24>
 8002864:	2220      	movs	r2, #32
 8002866:	6c63      	ldr	r3, [r4, #68]	@ 0x44
 8002868:	4313      	orrs	r3, r2
 800286a:	6463      	str	r3, [r4, #68]	@ 0x44
 800286c:	0023      	movs	r3, r4
 800286e:	3341      	adds	r3, #65	@ 0x41
 8002870:	701a      	strb	r2, [r3, #0]
 8002872:	2200      	movs	r2, #0
 8002874:	705a      	strb	r2, [r3, #1]
 8002876:	2300      	movs	r3, #0
 8002878:	2001      	movs	r0, #1
 800287a:	3440      	adds	r4, #64	@ 0x40
 800287c:	7023      	strb	r3, [r4, #0]
 800287e:	bdfe      	pop	{r1, r2, r3, r4, r5, r6, r7, pc}
 8002880:	fe00e800 	.word	0xfe00e800

08002884 <I2C_WaitOnSTOPFlagUntilTimeout>:
 8002884:	b5f8      	push	{r3, r4, r5, r6, r7, lr}
 8002886:	0004      	movs	r4, r0
 8002888:	000d      	movs	r5, r1
 800288a:	0016      	movs	r6, r2
 800288c:	2720      	movs	r7, #32
 800288e:	6823      	ldr	r3, [r4, #0]
 8002890:	699b      	ldr	r3, [r3, #24]
 8002892:	423b      	tst	r3, r7
 8002894:	d001      	beq.n	800289a <I2C_WaitOnSTOPFlagUntilTimeout+0x16>
 8002896:	2000      	movs	r0, #0
 8002898:	e01b      	b.n	80028d2 <I2C_WaitOnSTOPFlagUntilTimeout+0x4e>
 800289a:	0032      	movs	r2, r6
 800289c:	0029      	movs	r1, r5
 800289e:	0020      	movs	r0, r4
 80028a0:	f7ff ffae 	bl	8002800 <I2C_IsAcknowledgeFailed>
 80028a4:	2800      	cmp	r0, #0
 80028a6:	d113      	bne.n	80028d0 <I2C_WaitOnSTOPFlagUntilTimeout+0x4c>
 80028a8:	f7ff fb2e 	bl	8001f08 <HAL_GetTick>
 80028ac:	1b80      	subs	r0, r0, r6
 80028ae:	42a8      	cmp	r0, r5
 80028b0:	d801      	bhi.n	80028b6 <I2C_WaitOnSTOPFlagUntilTimeout+0x32>
 80028b2:	2d00      	cmp	r5, #0
 80028b4:	d1eb      	bne.n	800288e <I2C_WaitOnSTOPFlagUntilTimeout+0xa>
 80028b6:	2220      	movs	r2, #32
 80028b8:	6c63      	ldr	r3, [r4, #68]	@ 0x44
 80028ba:	4313      	orrs	r3, r2
 80028bc:	6463      	str	r3, [r4, #68]	@ 0x44
 80028be:	0023      	movs	r3, r4
 80028c0:	3341      	adds	r3, #65	@ 0x41
 80028c2:	701a      	strb	r2, [r3, #0]
 80028c4:	0022      	movs	r2, r4
 80028c6:	2300      	movs	r3, #0
 80028c8:	3242      	adds	r2, #66	@ 0x42
 80028ca:	3440      	adds	r4, #64	@ 0x40
 80028cc:	7013      	strb	r3, [r2, #0]
 80028ce:	7023      	strb	r3, [r4, #0]
 80028d0:	2001      	movs	r0, #1
 80028d2:	bdf8      	pop	{r3, r4, r5, r6, r7, pc}

080028d4 <I2C_WaitOnRXNEFlagUntilTimeout>:
 80028d4:	b5f8      	push	{r3, r4, r5, r6, r7, lr}
 80028d6:	0004      	movs	r4, r0
 80028d8:	000d      	movs	r5, r1
 80028da:	0016      	movs	r6, r2
 80028dc:	2704      	movs	r7, #4
 80028de:	6823      	ldr	r3, [r4, #0]
 80028e0:	699b      	ldr	r3, [r3, #24]
 80028e2:	423b      	tst	r3, r7
 80028e4:	d111      	bne.n	800290a <I2C_WaitOnRXNEFlagUntilTimeout+0x36>
 80028e6:	0032      	movs	r2, r6
 80028e8:	0029      	movs	r1, r5
 80028ea:	0020      	movs	r0, r4
 80028ec:	f7ff ff88 	bl	8002800 <I2C_IsAcknowledgeFailed>
 80028f0:	2800      	cmp	r0, #0
 80028f2:	d11a      	bne.n	800292a <I2C_WaitOnRXNEFlagUntilTimeout+0x56>
 80028f4:	2120      	movs	r1, #32
 80028f6:	6823      	ldr	r3, [r4, #0]
 80028f8:	699a      	ldr	r2, [r3, #24]
 80028fa:	420a      	tst	r2, r1
 80028fc:	d017      	beq.n	800292e <I2C_WaitOnRXNEFlagUntilTimeout+0x5a>
 80028fe:	699a      	ldr	r2, [r3, #24]
 8002900:	423a      	tst	r2, r7
 8002902:	d004      	beq.n	800290e <I2C_WaitOnRXNEFlagUntilTimeout+0x3a>
 8002904:	8d22      	ldrh	r2, [r4, #40]	@ 0x28
 8002906:	2a00      	cmp	r2, #0
 8002908:	d001      	beq.n	800290e <I2C_WaitOnRXNEFlagUntilTimeout+0x3a>
 800290a:	2000      	movs	r0, #0
 800290c:	bdf8      	pop	{r3, r4, r5, r6, r7, pc}
 800290e:	2120      	movs	r1, #32
 8002910:	61d9      	str	r1, [r3, #28]
 8002912:	685a      	ldr	r2, [r3, #4]
 8002914:	480e      	ldr	r0, [pc, #56]	@ (8002950 <I2C_WaitOnRXNEFlagUntilTimeout+0x7c>)
 8002916:	4002      	ands	r2, r0
 8002918:	605a      	str	r2, [r3, #4]
 800291a:	0022      	movs	r2, r4
 800291c:	2300      	movs	r3, #0
 800291e:	3241      	adds	r2, #65	@ 0x41
 8002920:	6463      	str	r3, [r4, #68]	@ 0x44
 8002922:	7011      	strb	r1, [r2, #0]
 8002924:	3440      	adds	r4, #64	@ 0x40
 8002926:	7053      	strb	r3, [r2, #1]
 8002928:	7023      	strb	r3, [r4, #0]
 800292a:	2001      	movs	r0, #1
 800292c:	e7ee      	b.n	800290c <I2C_WaitOnRXNEFlagUntilTimeout+0x38>
 800292e:	f7ff faeb 	bl	8001f08 <HAL_GetTick>
 8002932:	1b80      	subs	r0, r0, r6
 8002934:	42a8      	cmp	r0, r5
 8002936:	d801      	bhi.n	800293c <I2C_WaitOnRXNEFlagUntilTimeout+0x68>
 8002938:	2d00      	cmp	r5, #0
 800293a:	d1d0      	bne.n	80028de <I2C_WaitOnRXNEFlagUntilTimeout+0xa>
 800293c:	2220      	movs	r2, #32
 800293e:	6c63      	ldr	r3, [r4, #68]	@ 0x44
 8002940:	4313      	orrs	r3, r2
 8002942:	6463      	str	r3, [r4, #68]	@ 0x44
 8002944:	0023      	movs	r3, r4
 8002946:	3341      	adds	r3, #65	@ 0x41
 8002948:	701a      	strb	r2, [r3, #0]
 800294a:	3440      	adds	r4, #64	@ 0x40
 800294c:	2300      	movs	r3, #0
 800294e:	e7eb      	b.n	8002928 <I2C_WaitOnRXNEFlagUntilTimeout+0x54>
 8002950:	fe00e800 	.word	0xfe00e800

08002954 <I2C_WaitOnFlagUntilTimeout>:
 8002954:	b5f8      	push	{r3, r4, r5, r6, r7, lr}
 8002956:	0004      	movs	r4, r0
 8002958:	000e      	movs	r6, r1
 800295a:	0017      	movs	r7, r2
 800295c:	001d      	movs	r5, r3
 800295e:	6822      	ldr	r2, [r4, #0]
 8002960:	6993      	ldr	r3, [r2, #24]
 8002962:	4033      	ands	r3, r6
 8002964:	1b9b      	subs	r3, r3, r6
 8002966:	4259      	negs	r1, r3
 8002968:	414b      	adcs	r3, r1
 800296a:	42bb      	cmp	r3, r7
 800296c:	d001      	beq.n	8002972 <I2C_WaitOnFlagUntilTimeout+0x1e>
 800296e:	2000      	movs	r0, #0
 8002970:	e017      	b.n	80029a2 <I2C_WaitOnFlagUntilTimeout+0x4e>
 8002972:	1c6b      	adds	r3, r5, #1
 8002974:	d0f4      	beq.n	8002960 <I2C_WaitOnFlagUntilTimeout+0xc>
 8002976:	f7ff fac7 	bl	8001f08 <HAL_GetTick>
 800297a:	9b06      	ldr	r3, [sp, #24]
 800297c:	1ac0      	subs	r0, r0, r3
 800297e:	42a8      	cmp	r0, r5
 8002980:	d801      	bhi.n	8002986 <I2C_WaitOnFlagUntilTimeout+0x32>
 8002982:	2d00      	cmp	r5, #0
 8002984:	d1eb      	bne.n	800295e <I2C_WaitOnFlagUntilTimeout+0xa>
 8002986:	2220      	movs	r2, #32
 8002988:	6c63      	ldr	r3, [r4, #68]	@ 0x44
 800298a:	2001      	movs	r0, #1
 800298c:	4313      	orrs	r3, r2
 800298e:	6463      	str	r3, [r4, #68]	@ 0x44
 8002990:	0023      	movs	r3, r4
 8002992:	3341      	adds	r3, #65	@ 0x41
 8002994:	701a      	strb	r2, [r3, #0]
 8002996:	0022      	movs	r2, r4
 8002998:	2300      	movs	r3, #0
 800299a:	3242      	adds	r2, #66	@ 0x42
 800299c:	3440      	adds	r4, #64	@ 0x40
 800299e:	7013      	strb	r3, [r2, #0]
 80029a0:	7023      	strb	r3, [r4, #0]
 80029a2:	bdf8      	pop	{r3, r4, r5, r6, r7, pc}

080029a4 <HAL_I2C_Init>:
 80029a4:	b570      	push	{r4, r5, r6, lr}
 80029a6:	0004      	movs	r4, r0
 80029a8:	2001      	movs	r0, #1
 80029aa:	2c00      	cmp	r4, #0
 80029ac:	d03f      	beq.n	8002a2e <HAL_I2C_Init+0x8a>
 80029ae:	0025      	movs	r5, r4
 80029b0:	3541      	adds	r5, #65	@ 0x41
 80029b2:	782b      	ldrb	r3, [r5, #0]
 80029b4:	b2da      	uxtb	r2, r3
 80029b6:	2b00      	cmp	r3, #0
 80029b8:	d105      	bne.n	80029c6 <HAL_I2C_Init+0x22>
 80029ba:	0023      	movs	r3, r4
 80029bc:	3340      	adds	r3, #64	@ 0x40
 80029be:	0020      	movs	r0, r4
 80029c0:	701a      	strb	r2, [r3, #0]
 80029c2:	f7fe ff71 	bl	80018a8 <HAL_I2C_MspInit>
 80029c6:	2324      	movs	r3, #36	@ 0x24
 80029c8:	2101      	movs	r1, #1
 80029ca:	702b      	strb	r3, [r5, #0]
 80029cc:	6823      	ldr	r3, [r4, #0]
 80029ce:	68e0      	ldr	r0, [r4, #12]
 80029d0:	681a      	ldr	r2, [r3, #0]
 80029d2:	68a6      	ldr	r6, [r4, #8]
 80029d4:	438a      	bics	r2, r1
 80029d6:	601a      	str	r2, [r3, #0]
 80029d8:	491a      	ldr	r1, [pc, #104]	@ (8002a44 <HAL_I2C_Init+0xa0>)
 80029da:	6862      	ldr	r2, [r4, #4]
 80029dc:	400a      	ands	r2, r1
 80029de:	611a      	str	r2, [r3, #16]
 80029e0:	689a      	ldr	r2, [r3, #8]
 80029e2:	4919      	ldr	r1, [pc, #100]	@ (8002a48 <HAL_I2C_Init+0xa4>)
 80029e4:	400a      	ands	r2, r1
 80029e6:	609a      	str	r2, [r3, #8]
 80029e8:	2801      	cmp	r0, #1
 80029ea:	d121      	bne.n	8002a30 <HAL_I2C_Init+0x8c>
 80029ec:	2280      	movs	r2, #128	@ 0x80
 80029ee:	0212      	lsls	r2, r2, #8
 80029f0:	4332      	orrs	r2, r6
 80029f2:	609a      	str	r2, [r3, #8]
 80029f4:	6858      	ldr	r0, [r3, #4]
 80029f6:	4a15      	ldr	r2, [pc, #84]	@ (8002a4c <HAL_I2C_Init+0xa8>)
 80029f8:	4302      	orrs	r2, r0
 80029fa:	605a      	str	r2, [r3, #4]
 80029fc:	68da      	ldr	r2, [r3, #12]
 80029fe:	2000      	movs	r0, #0
 8002a00:	400a      	ands	r2, r1
 8002a02:	60da      	str	r2, [r3, #12]
 8002a04:	6961      	ldr	r1, [r4, #20]
 8002a06:	6922      	ldr	r2, [r4, #16]
 8002a08:	430a      	orrs	r2, r1
 8002a0a:	69a1      	ldr	r1, [r4, #24]
 8002a0c:	0209      	lsls	r1, r1, #8
 8002a0e:	430a      	orrs	r2, r1
 8002a10:	60da      	str	r2, [r3, #12]
 8002a12:	6a21      	ldr	r1, [r4, #32]
 8002a14:	69e2      	ldr	r2, [r4, #28]
 8002a16:	430a      	orrs	r2, r1
 8002a18:	601a      	str	r2, [r3, #0]
 8002a1a:	2201      	movs	r2, #1
 8002a1c:	6819      	ldr	r1, [r3, #0]
 8002a1e:	430a      	orrs	r2, r1
 8002a20:	601a      	str	r2, [r3, #0]
 8002a22:	2320      	movs	r3, #32
 8002a24:	6460      	str	r0, [r4, #68]	@ 0x44
 8002a26:	702b      	strb	r3, [r5, #0]
 8002a28:	6320      	str	r0, [r4, #48]	@ 0x30
 8002a2a:	3442      	adds	r4, #66	@ 0x42
 8002a2c:	7020      	strb	r0, [r4, #0]
 8002a2e:	bd70      	pop	{r4, r5, r6, pc}
 8002a30:	2284      	movs	r2, #132	@ 0x84
 8002a32:	0212      	lsls	r2, r2, #8
 8002a34:	4332      	orrs	r2, r6
 8002a36:	609a      	str	r2, [r3, #8]
 8002a38:	2802      	cmp	r0, #2
 8002a3a:	d1db      	bne.n	80029f4 <HAL_I2C_Init+0x50>
 8002a3c:	2280      	movs	r2, #128	@ 0x80
 8002a3e:	0112      	lsls	r2, r2, #4
 8002a40:	605a      	str	r2, [r3, #4]
 8002a42:	e7d7      	b.n	80029f4 <HAL_I2C_Init+0x50>
 8002a44:	f0ffffff 	.word	0xf0ffffff
 8002a48:	ffff7fff 	.word	0xffff7fff
 8002a4c:	02008000 	.word	0x02008000

08002a50 <HAL_I2C_Master_Receive>:
 8002a50:	b5f0      	push	{r4, r5, r6, r7, lr}
 8002a52:	0006      	movs	r6, r0
 8002a54:	b085      	sub	sp, #20
 8002a56:	9202      	str	r2, [sp, #8]
 8002a58:	9303      	str	r3, [sp, #12]
 8002a5a:	3641      	adds	r6, #65	@ 0x41
 8002a5c:	7833      	ldrb	r3, [r6, #0]
 8002a5e:	0004      	movs	r4, r0
 8002a60:	000f      	movs	r7, r1
 8002a62:	2002      	movs	r0, #2
 8002a64:	2b20      	cmp	r3, #32
 8002a66:	d114      	bne.n	8002a92 <HAL_I2C_Master_Receive+0x42>
 8002a68:	0023      	movs	r3, r4
 8002a6a:	3340      	adds	r3, #64	@ 0x40
 8002a6c:	781a      	ldrb	r2, [r3, #0]
 8002a6e:	2a01      	cmp	r2, #1
 8002a70:	d00f      	beq.n	8002a92 <HAL_I2C_Master_Receive+0x42>
 8002a72:	2201      	movs	r2, #1
 8002a74:	701a      	strb	r2, [r3, #0]
 8002a76:	f7ff fa47 	bl	8001f08 <HAL_GetTick>
 8002a7a:	2180      	movs	r1, #128	@ 0x80
 8002a7c:	0005      	movs	r5, r0
 8002a7e:	9000      	str	r0, [sp, #0]
 8002a80:	2319      	movs	r3, #25
 8002a82:	2201      	movs	r2, #1
 8002a84:	0020      	movs	r0, r4
 8002a86:	0209      	lsls	r1, r1, #8
 8002a88:	f7ff ff64 	bl	8002954 <I2C_WaitOnFlagUntilTimeout>
 8002a8c:	2800      	cmp	r0, #0
 8002a8e:	d002      	beq.n	8002a96 <HAL_I2C_Master_Receive+0x46>
 8002a90:	2001      	movs	r0, #1
 8002a92:	b005      	add	sp, #20
 8002a94:	bdf0      	pop	{r4, r5, r6, r7, pc}
 8002a96:	2322      	movs	r3, #34	@ 0x22
 8002a98:	7033      	strb	r3, [r6, #0]
 8002a9a:	0026      	movs	r6, r4
 8002a9c:	3b12      	subs	r3, #18
 8002a9e:	3642      	adds	r6, #66	@ 0x42
 8002aa0:	7033      	strb	r3, [r6, #0]
 8002aa2:	9b02      	ldr	r3, [sp, #8]
 8002aa4:	6460      	str	r0, [r4, #68]	@ 0x44
 8002aa6:	6263      	str	r3, [r4, #36]	@ 0x24
 8002aa8:	9b03      	ldr	r3, [sp, #12]
 8002aaa:	6360      	str	r0, [r4, #52]	@ 0x34
 8002aac:	8563      	strh	r3, [r4, #42]	@ 0x2a
 8002aae:	8d62      	ldrh	r2, [r4, #42]	@ 0x2a
 8002ab0:	4b2c      	ldr	r3, [pc, #176]	@ (8002b64 <HAL_I2C_Master_Receive+0x114>)
 8002ab2:	2aff      	cmp	r2, #255	@ 0xff
 8002ab4:	d920      	bls.n	8002af8 <HAL_I2C_Master_Receive+0xa8>
 8002ab6:	22ff      	movs	r2, #255	@ 0xff
 8002ab8:	8522      	strh	r2, [r4, #40]	@ 0x28
 8002aba:	9300      	str	r3, [sp, #0]
 8002abc:	2380      	movs	r3, #128	@ 0x80
 8002abe:	045b      	lsls	r3, r3, #17
 8002ac0:	0039      	movs	r1, r7
 8002ac2:	0020      	movs	r0, r4
 8002ac4:	f7ff fe88 	bl	80027d8 <I2C_TransferConfig>
 8002ac8:	8d63      	ldrh	r3, [r4, #42]	@ 0x2a
 8002aca:	002a      	movs	r2, r5
 8002acc:	0020      	movs	r0, r4
 8002ace:	990a      	ldr	r1, [sp, #40]	@ 0x28
 8002ad0:	2b00      	cmp	r3, #0
 8002ad2:	d119      	bne.n	8002b08 <HAL_I2C_Master_Receive+0xb8>
 8002ad4:	f7ff fed6 	bl	8002884 <I2C_WaitOnSTOPFlagUntilTimeout>
 8002ad8:	2800      	cmp	r0, #0
 8002ada:	d1d9      	bne.n	8002a90 <HAL_I2C_Master_Receive+0x40>
 8002adc:	2120      	movs	r1, #32
 8002ade:	6823      	ldr	r3, [r4, #0]
 8002ae0:	4d21      	ldr	r5, [pc, #132]	@ (8002b68 <HAL_I2C_Master_Receive+0x118>)
 8002ae2:	61d9      	str	r1, [r3, #28]
 8002ae4:	685a      	ldr	r2, [r3, #4]
 8002ae6:	402a      	ands	r2, r5
 8002ae8:	605a      	str	r2, [r3, #4]
 8002aea:	0023      	movs	r3, r4
 8002aec:	3440      	adds	r4, #64	@ 0x40
 8002aee:	3341      	adds	r3, #65	@ 0x41
 8002af0:	7019      	strb	r1, [r3, #0]
 8002af2:	7030      	strb	r0, [r6, #0]
 8002af4:	7020      	strb	r0, [r4, #0]
 8002af6:	e7cc      	b.n	8002a92 <HAL_I2C_Master_Receive+0x42>
 8002af8:	8d62      	ldrh	r2, [r4, #42]	@ 0x2a
 8002afa:	b292      	uxth	r2, r2
 8002afc:	8522      	strh	r2, [r4, #40]	@ 0x28
 8002afe:	b2d2      	uxtb	r2, r2
 8002b00:	9300      	str	r3, [sp, #0]
 8002b02:	2380      	movs	r3, #128	@ 0x80
 8002b04:	049b      	lsls	r3, r3, #18
 8002b06:	e7db      	b.n	8002ac0 <HAL_I2C_Master_Receive+0x70>
 8002b08:	f7ff fee4 	bl	80028d4 <I2C_WaitOnRXNEFlagUntilTimeout>
 8002b0c:	2800      	cmp	r0, #0
 8002b0e:	d1bf      	bne.n	8002a90 <HAL_I2C_Master_Receive+0x40>
 8002b10:	6823      	ldr	r3, [r4, #0]
 8002b12:	6a5a      	ldr	r2, [r3, #36]	@ 0x24
 8002b14:	6a63      	ldr	r3, [r4, #36]	@ 0x24
 8002b16:	701a      	strb	r2, [r3, #0]
 8002b18:	6a63      	ldr	r3, [r4, #36]	@ 0x24
 8002b1a:	8d22      	ldrh	r2, [r4, #40]	@ 0x28
 8002b1c:	3301      	adds	r3, #1
 8002b1e:	6263      	str	r3, [r4, #36]	@ 0x24
 8002b20:	8d63      	ldrh	r3, [r4, #42]	@ 0x2a
 8002b22:	3a01      	subs	r2, #1
 8002b24:	3b01      	subs	r3, #1
 8002b26:	b29b      	uxth	r3, r3
 8002b28:	8563      	strh	r3, [r4, #42]	@ 0x2a
 8002b2a:	8d63      	ldrh	r3, [r4, #42]	@ 0x2a
 8002b2c:	b292      	uxth	r2, r2
 8002b2e:	8522      	strh	r2, [r4, #40]	@ 0x28
 8002b30:	2b00      	cmp	r3, #0
 8002b32:	d0c9      	beq.n	8002ac8 <HAL_I2C_Master_Receive+0x78>
 8002b34:	2a00      	cmp	r2, #0
 8002b36:	d1c7      	bne.n	8002ac8 <HAL_I2C_Master_Receive+0x78>
 8002b38:	2180      	movs	r1, #128	@ 0x80
 8002b3a:	0020      	movs	r0, r4
 8002b3c:	9b0a      	ldr	r3, [sp, #40]	@ 0x28
 8002b3e:	9500      	str	r5, [sp, #0]
 8002b40:	f7ff ff08 	bl	8002954 <I2C_WaitOnFlagUntilTimeout>
 8002b44:	2800      	cmp	r0, #0
 8002b46:	d1a3      	bne.n	8002a90 <HAL_I2C_Master_Receive+0x40>
 8002b48:	8d63      	ldrh	r3, [r4, #42]	@ 0x2a
 8002b4a:	2bff      	cmp	r3, #255	@ 0xff
 8002b4c:	d903      	bls.n	8002b56 <HAL_I2C_Master_Receive+0x106>
 8002b4e:	22ff      	movs	r2, #255	@ 0xff
 8002b50:	8522      	strh	r2, [r4, #40]	@ 0x28
 8002b52:	9000      	str	r0, [sp, #0]
 8002b54:	e7b2      	b.n	8002abc <HAL_I2C_Master_Receive+0x6c>
 8002b56:	8d62      	ldrh	r2, [r4, #42]	@ 0x2a
 8002b58:	b292      	uxth	r2, r2
 8002b5a:	8522      	strh	r2, [r4, #40]	@ 0x28
 8002b5c:	b2d2      	uxtb	r2, r2
 8002b5e:	9000      	str	r0, [sp, #0]
 8002b60:	e7cf      	b.n	8002b02 <HAL_I2C_Master_Receive+0xb2>
 8002b62:	46c0      	nop			@ (mov r8, r8)
 8002b64:	80002400 	.word	0x80002400
 8002b68:	fe00e800 	.word	0xfe00e800

08002b6c <HAL_I2CEx_ConfigAnalogFilter>:
 8002b6c:	b5f0      	push	{r4, r5, r6, r7, lr}
 8002b6e:	0004      	movs	r4, r0
 8002b70:	3441      	adds	r4, #65	@ 0x41
 8002b72:	7822      	ldrb	r2, [r4, #0]
 8002b74:	0003      	movs	r3, r0
 8002b76:	000f      	movs	r7, r1
 8002b78:	2002      	movs	r0, #2
 8002b7a:	b2d6      	uxtb	r6, r2
 8002b7c:	2a20      	cmp	r2, #32
 8002b7e:	d118      	bne.n	8002bb2 <HAL_I2CEx_ConfigAnalogFilter+0x46>
 8002b80:	001d      	movs	r5, r3
 8002b82:	3540      	adds	r5, #64	@ 0x40
 8002b84:	782a      	ldrb	r2, [r5, #0]
 8002b86:	2a01      	cmp	r2, #1
 8002b88:	d013      	beq.n	8002bb2 <HAL_I2CEx_ConfigAnalogFilter+0x46>
 8002b8a:	2224      	movs	r2, #36	@ 0x24
 8002b8c:	7022      	strb	r2, [r4, #0]
 8002b8e:	681b      	ldr	r3, [r3, #0]
 8002b90:	3a23      	subs	r2, #35	@ 0x23
 8002b92:	6819      	ldr	r1, [r3, #0]
 8002b94:	4807      	ldr	r0, [pc, #28]	@ (8002bb4 <HAL_I2CEx_ConfigAnalogFilter+0x48>)
 8002b96:	4391      	bics	r1, r2
 8002b98:	6019      	str	r1, [r3, #0]
 8002b9a:	6819      	ldr	r1, [r3, #0]
 8002b9c:	4001      	ands	r1, r0
 8002b9e:	2000      	movs	r0, #0
 8002ba0:	6019      	str	r1, [r3, #0]
 8002ba2:	6819      	ldr	r1, [r3, #0]
 8002ba4:	4339      	orrs	r1, r7
 8002ba6:	6019      	str	r1, [r3, #0]
 8002ba8:	6819      	ldr	r1, [r3, #0]
 8002baa:	430a      	orrs	r2, r1
 8002bac:	601a      	str	r2, [r3, #0]
 8002bae:	7026      	strb	r6, [r4, #0]
 8002bb0:	7028      	strb	r0, [r5, #0]
 8002bb2:	bdf0      	pop	{r4, r5, r6, r7, pc}
 8002bb4:	ffffefff 	.word	0xffffefff

08002bb8 <HAL_I2CEx_ConfigDigitalFilter>:
 8002bb8:	0002      	movs	r2, r0
 8002bba:	b5f0      	push	{r4, r5, r6, r7, lr}
 8002bbc:	3241      	adds	r2, #65	@ 0x41
 8002bbe:	7814      	ldrb	r4, [r2, #0]
 8002bc0:	0003      	movs	r3, r0
 8002bc2:	b2e5      	uxtb	r5, r4
 8002bc4:	2002      	movs	r0, #2
 8002bc6:	2c20      	cmp	r4, #32
 8002bc8:	d117      	bne.n	8002bfa <HAL_I2CEx_ConfigDigitalFilter+0x42>
 8002bca:	001c      	movs	r4, r3
 8002bcc:	3440      	adds	r4, #64	@ 0x40
 8002bce:	7826      	ldrb	r6, [r4, #0]
 8002bd0:	2e01      	cmp	r6, #1
 8002bd2:	d012      	beq.n	8002bfa <HAL_I2CEx_ConfigDigitalFilter+0x42>
 8002bd4:	3022      	adds	r0, #34	@ 0x22
 8002bd6:	7010      	strb	r0, [r2, #0]
 8002bd8:	681b      	ldr	r3, [r3, #0]
 8002bda:	3823      	subs	r0, #35	@ 0x23
 8002bdc:	681e      	ldr	r6, [r3, #0]
 8002bde:	4f07      	ldr	r7, [pc, #28]	@ (8002bfc <HAL_I2CEx_ConfigDigitalFilter+0x44>)
 8002be0:	4386      	bics	r6, r0
 8002be2:	601e      	str	r6, [r3, #0]
 8002be4:	681e      	ldr	r6, [r3, #0]
 8002be6:	0209      	lsls	r1, r1, #8
 8002be8:	403e      	ands	r6, r7
 8002bea:	4331      	orrs	r1, r6
 8002bec:	6019      	str	r1, [r3, #0]
 8002bee:	6819      	ldr	r1, [r3, #0]
 8002bf0:	4308      	orrs	r0, r1
 8002bf2:	6018      	str	r0, [r3, #0]
 8002bf4:	2000      	movs	r0, #0
 8002bf6:	7015      	strb	r5, [r2, #0]
 8002bf8:	7020      	strb	r0, [r4, #0]
 8002bfa:	bdf0      	pop	{r4, r5, r6, r7, pc}
 8002bfc:	fffff0ff 	.word	0xfffff0ff

08002c00 <HAL_RCC_OscConfig>:
 8002c00:	b5f0      	push	{r4, r5, r6, r7, lr}
 8002c02:	0004      	movs	r4, r0
 8002c04:	b085      	sub	sp, #20
 8002c06:	2800      	cmp	r0, #0
 8002c08:	d102      	bne.n	8002c10 <HAL_RCC_OscConfig+0x10>
 8002c0a:	2001      	movs	r0, #1
 8002c0c:	b005      	add	sp, #20
 8002c0e:	bdf0      	pop	{r4, r5, r6, r7, pc}
 8002c10:	6803      	ldr	r3, [r0, #0]
 8002c12:	07db      	lsls	r3, r3, #31
 8002c14:	d433      	bmi.n	8002c7e <HAL_RCC_OscConfig+0x7e>
 8002c16:	6823      	ldr	r3, [r4, #0]
 8002c18:	079b      	lsls	r3, r3, #30
 8002c1a:	d500      	bpl.n	8002c1e <HAL_RCC_OscConfig+0x1e>
 8002c1c:	e087      	b.n	8002d2e <HAL_RCC_OscConfig+0x12e>
 8002c1e:	6823      	ldr	r3, [r4, #0]
 8002c20:	071b      	lsls	r3, r3, #28
 8002c22:	d500      	bpl.n	8002c26 <HAL_RCC_OscConfig+0x26>
 8002c24:	e0c8      	b.n	8002db8 <HAL_RCC_OscConfig+0x1b8>
 8002c26:	6823      	ldr	r3, [r4, #0]
 8002c28:	075b      	lsls	r3, r3, #29
 8002c2a:	d500      	bpl.n	8002c2e <HAL_RCC_OscConfig+0x2e>
 8002c2c:	e0eb      	b.n	8002e06 <HAL_RCC_OscConfig+0x206>
 8002c2e:	6823      	ldr	r3, [r4, #0]
 8002c30:	06db      	lsls	r3, r3, #27
 8002c32:	d51a      	bpl.n	8002c6a <HAL_RCC_OscConfig+0x6a>
 8002c34:	6962      	ldr	r2, [r4, #20]
 8002c36:	2304      	movs	r3, #4
 8002c38:	4db9      	ldr	r5, [pc, #740]	@ (8002f20 <HAL_RCC_OscConfig+0x320>)
 8002c3a:	2a01      	cmp	r2, #1
 8002c3c:	d000      	beq.n	8002c40 <HAL_RCC_OscConfig+0x40>
 8002c3e:	e154      	b.n	8002eea <HAL_RCC_OscConfig+0x2ea>
 8002c40:	6b69      	ldr	r1, [r5, #52]	@ 0x34
 8002c42:	2702      	movs	r7, #2
 8002c44:	430b      	orrs	r3, r1
 8002c46:	636b      	str	r3, [r5, #52]	@ 0x34
 8002c48:	6b6b      	ldr	r3, [r5, #52]	@ 0x34
 8002c4a:	431a      	orrs	r2, r3
 8002c4c:	636a      	str	r2, [r5, #52]	@ 0x34
 8002c4e:	f7ff f95b 	bl	8001f08 <HAL_GetTick>
 8002c52:	0006      	movs	r6, r0
 8002c54:	6b6b      	ldr	r3, [r5, #52]	@ 0x34
 8002c56:	423b      	tst	r3, r7
 8002c58:	d100      	bne.n	8002c5c <HAL_RCC_OscConfig+0x5c>
 8002c5a:	e13f      	b.n	8002edc <HAL_RCC_OscConfig+0x2dc>
 8002c5c:	21f8      	movs	r1, #248	@ 0xf8
 8002c5e:	6b6a      	ldr	r2, [r5, #52]	@ 0x34
 8002c60:	69a3      	ldr	r3, [r4, #24]
 8002c62:	438a      	bics	r2, r1
 8002c64:	00db      	lsls	r3, r3, #3
 8002c66:	4313      	orrs	r3, r2
 8002c68:	636b      	str	r3, [r5, #52]	@ 0x34
 8002c6a:	6823      	ldr	r3, [r4, #0]
 8002c6c:	069b      	lsls	r3, r3, #26
 8002c6e:	d500      	bpl.n	8002c72 <HAL_RCC_OscConfig+0x72>
 8002c70:	e162      	b.n	8002f38 <HAL_RCC_OscConfig+0x338>
 8002c72:	6a63      	ldr	r3, [r4, #36]	@ 0x24
 8002c74:	2b00      	cmp	r3, #0
 8002c76:	d000      	beq.n	8002c7a <HAL_RCC_OscConfig+0x7a>
 8002c78:	e19f      	b.n	8002fba <HAL_RCC_OscConfig+0x3ba>
 8002c7a:	2000      	movs	r0, #0
 8002c7c:	e7c6      	b.n	8002c0c <HAL_RCC_OscConfig+0xc>
 8002c7e:	220c      	movs	r2, #12
 8002c80:	4da7      	ldr	r5, [pc, #668]	@ (8002f20 <HAL_RCC_OscConfig+0x320>)
 8002c82:	686b      	ldr	r3, [r5, #4]
 8002c84:	4013      	ands	r3, r2
 8002c86:	2b04      	cmp	r3, #4
 8002c88:	d00b      	beq.n	8002ca2 <HAL_RCC_OscConfig+0xa2>
 8002c8a:	686b      	ldr	r3, [r5, #4]
 8002c8c:	4013      	ands	r3, r2
 8002c8e:	2b08      	cmp	r3, #8
 8002c90:	d10e      	bne.n	8002cb0 <HAL_RCC_OscConfig+0xb0>
 8002c92:	22c0      	movs	r2, #192	@ 0xc0
 8002c94:	686b      	ldr	r3, [r5, #4]
 8002c96:	0252      	lsls	r2, r2, #9
 8002c98:	4013      	ands	r3, r2
 8002c9a:	2280      	movs	r2, #128	@ 0x80
 8002c9c:	0252      	lsls	r2, r2, #9
 8002c9e:	4293      	cmp	r3, r2
 8002ca0:	d106      	bne.n	8002cb0 <HAL_RCC_OscConfig+0xb0>
 8002ca2:	682b      	ldr	r3, [r5, #0]
 8002ca4:	039b      	lsls	r3, r3, #14
 8002ca6:	d5b6      	bpl.n	8002c16 <HAL_RCC_OscConfig+0x16>
 8002ca8:	6863      	ldr	r3, [r4, #4]
 8002caa:	2b00      	cmp	r3, #0
 8002cac:	d1b3      	bne.n	8002c16 <HAL_RCC_OscConfig+0x16>
 8002cae:	e7ac      	b.n	8002c0a <HAL_RCC_OscConfig+0xa>
 8002cb0:	6863      	ldr	r3, [r4, #4]
 8002cb2:	2b01      	cmp	r3, #1
 8002cb4:	d113      	bne.n	8002cde <HAL_RCC_OscConfig+0xde>
 8002cb6:	2380      	movs	r3, #128	@ 0x80
 8002cb8:	682a      	ldr	r2, [r5, #0]
 8002cba:	025b      	lsls	r3, r3, #9
 8002cbc:	4313      	orrs	r3, r2
 8002cbe:	602b      	str	r3, [r5, #0]
 8002cc0:	f7ff f922 	bl	8001f08 <HAL_GetTick>
 8002cc4:	2780      	movs	r7, #128	@ 0x80
 8002cc6:	0006      	movs	r6, r0
 8002cc8:	02bf      	lsls	r7, r7, #10
 8002cca:	682b      	ldr	r3, [r5, #0]
 8002ccc:	423b      	tst	r3, r7
 8002cce:	d1a2      	bne.n	8002c16 <HAL_RCC_OscConfig+0x16>
 8002cd0:	f7ff f91a 	bl	8001f08 <HAL_GetTick>
 8002cd4:	1b80      	subs	r0, r0, r6
 8002cd6:	2864      	cmp	r0, #100	@ 0x64
 8002cd8:	d9f7      	bls.n	8002cca <HAL_RCC_OscConfig+0xca>
 8002cda:	2003      	movs	r0, #3
 8002cdc:	e796      	b.n	8002c0c <HAL_RCC_OscConfig+0xc>
 8002cde:	2b00      	cmp	r3, #0
 8002ce0:	d115      	bne.n	8002d0e <HAL_RCC_OscConfig+0x10e>
 8002ce2:	682b      	ldr	r3, [r5, #0]
 8002ce4:	4a8f      	ldr	r2, [pc, #572]	@ (8002f24 <HAL_RCC_OscConfig+0x324>)
 8002ce6:	2780      	movs	r7, #128	@ 0x80
 8002ce8:	4013      	ands	r3, r2
 8002cea:	602b      	str	r3, [r5, #0]
 8002cec:	682b      	ldr	r3, [r5, #0]
 8002cee:	4a8e      	ldr	r2, [pc, #568]	@ (8002f28 <HAL_RCC_OscConfig+0x328>)
 8002cf0:	02bf      	lsls	r7, r7, #10
 8002cf2:	4013      	ands	r3, r2
 8002cf4:	602b      	str	r3, [r5, #0]
 8002cf6:	f7ff f907 	bl	8001f08 <HAL_GetTick>
 8002cfa:	0006      	movs	r6, r0
 8002cfc:	682b      	ldr	r3, [r5, #0]
 8002cfe:	423b      	tst	r3, r7
 8002d00:	d089      	beq.n	8002c16 <HAL_RCC_OscConfig+0x16>
 8002d02:	f7ff f901 	bl	8001f08 <HAL_GetTick>
 8002d06:	1b80      	subs	r0, r0, r6
 8002d08:	2864      	cmp	r0, #100	@ 0x64
 8002d0a:	d9f7      	bls.n	8002cfc <HAL_RCC_OscConfig+0xfc>
 8002d0c:	e7e5      	b.n	8002cda <HAL_RCC_OscConfig+0xda>
 8002d0e:	2b05      	cmp	r3, #5
 8002d10:	d105      	bne.n	8002d1e <HAL_RCC_OscConfig+0x11e>
 8002d12:	2380      	movs	r3, #128	@ 0x80
 8002d14:	682a      	ldr	r2, [r5, #0]
 8002d16:	02db      	lsls	r3, r3, #11
 8002d18:	4313      	orrs	r3, r2
 8002d1a:	602b      	str	r3, [r5, #0]
 8002d1c:	e7cb      	b.n	8002cb6 <HAL_RCC_OscConfig+0xb6>
 8002d1e:	682b      	ldr	r3, [r5, #0]
 8002d20:	4a80      	ldr	r2, [pc, #512]	@ (8002f24 <HAL_RCC_OscConfig+0x324>)
 8002d22:	4013      	ands	r3, r2
 8002d24:	602b      	str	r3, [r5, #0]
 8002d26:	682b      	ldr	r3, [r5, #0]
 8002d28:	4a7f      	ldr	r2, [pc, #508]	@ (8002f28 <HAL_RCC_OscConfig+0x328>)
 8002d2a:	4013      	ands	r3, r2
 8002d2c:	e7c7      	b.n	8002cbe <HAL_RCC_OscConfig+0xbe>
 8002d2e:	220c      	movs	r2, #12
 8002d30:	4d7b      	ldr	r5, [pc, #492]	@ (8002f20 <HAL_RCC_OscConfig+0x320>)
 8002d32:	686b      	ldr	r3, [r5, #4]
 8002d34:	4213      	tst	r3, r2
 8002d36:	d00b      	beq.n	8002d50 <HAL_RCC_OscConfig+0x150>
 8002d38:	686b      	ldr	r3, [r5, #4]
 8002d3a:	4013      	ands	r3, r2
 8002d3c:	2b08      	cmp	r3, #8
 8002d3e:	d116      	bne.n	8002d6e <HAL_RCC_OscConfig+0x16e>
 8002d40:	22c0      	movs	r2, #192	@ 0xc0
 8002d42:	686b      	ldr	r3, [r5, #4]
 8002d44:	0252      	lsls	r2, r2, #9
 8002d46:	4013      	ands	r3, r2
 8002d48:	2280      	movs	r2, #128	@ 0x80
 8002d4a:	0212      	lsls	r2, r2, #8
 8002d4c:	4293      	cmp	r3, r2
 8002d4e:	d10e      	bne.n	8002d6e <HAL_RCC_OscConfig+0x16e>
 8002d50:	682b      	ldr	r3, [r5, #0]
 8002d52:	079b      	lsls	r3, r3, #30
 8002d54:	d503      	bpl.n	8002d5e <HAL_RCC_OscConfig+0x15e>
 8002d56:	68e3      	ldr	r3, [r4, #12]
 8002d58:	2b01      	cmp	r3, #1
 8002d5a:	d000      	beq.n	8002d5e <HAL_RCC_OscConfig+0x15e>
 8002d5c:	e755      	b.n	8002c0a <HAL_RCC_OscConfig+0xa>
 8002d5e:	21f8      	movs	r1, #248	@ 0xf8
 8002d60:	682a      	ldr	r2, [r5, #0]
 8002d62:	6923      	ldr	r3, [r4, #16]
 8002d64:	438a      	bics	r2, r1
 8002d66:	00db      	lsls	r3, r3, #3
 8002d68:	4313      	orrs	r3, r2
 8002d6a:	602b      	str	r3, [r5, #0]
 8002d6c:	e757      	b.n	8002c1e <HAL_RCC_OscConfig+0x1e>
 8002d6e:	68e2      	ldr	r2, [r4, #12]
 8002d70:	2301      	movs	r3, #1
 8002d72:	2a00      	cmp	r2, #0
 8002d74:	d00f      	beq.n	8002d96 <HAL_RCC_OscConfig+0x196>
 8002d76:	682a      	ldr	r2, [r5, #0]
 8002d78:	2702      	movs	r7, #2
 8002d7a:	4313      	orrs	r3, r2
 8002d7c:	602b      	str	r3, [r5, #0]
 8002d7e:	f7ff f8c3 	bl	8001f08 <HAL_GetTick>
 8002d82:	0006      	movs	r6, r0
 8002d84:	682b      	ldr	r3, [r5, #0]
 8002d86:	423b      	tst	r3, r7
 8002d88:	d1e9      	bne.n	8002d5e <HAL_RCC_OscConfig+0x15e>
 8002d8a:	f7ff f8bd 	bl	8001f08 <HAL_GetTick>
 8002d8e:	1b80      	subs	r0, r0, r6
 8002d90:	2802      	cmp	r0, #2
 8002d92:	d9f7      	bls.n	8002d84 <HAL_RCC_OscConfig+0x184>
 8002d94:	e7a1      	b.n	8002cda <HAL_RCC_OscConfig+0xda>
 8002d96:	682a      	ldr	r2, [r5, #0]
 8002d98:	2702      	movs	r7, #2
 8002d9a:	439a      	bics	r2, r3
 8002d9c:	602a      	str	r2, [r5, #0]
 8002d9e:	f7ff f8b3 	bl	8001f08 <HAL_GetTick>
 8002da2:	0006      	movs	r6, r0
 8002da4:	682b      	ldr	r3, [r5, #0]
 8002da6:	423b      	tst	r3, r7
 8002da8:	d100      	bne.n	8002dac <HAL_RCC_OscConfig+0x1ac>
 8002daa:	e738      	b.n	8002c1e <HAL_RCC_OscConfig+0x1e>
 8002dac:	f7ff f8ac 	bl	8001f08 <HAL_GetTick>
 8002db0:	1b80      	subs	r0, r0, r6
 8002db2:	2802      	cmp	r0, #2
 8002db4:	d9f6      	bls.n	8002da4 <HAL_RCC_OscConfig+0x1a4>
 8002db6:	e790      	b.n	8002cda <HAL_RCC_OscConfig+0xda>
 8002db8:	69e2      	ldr	r2, [r4, #28]
 8002dba:	2301      	movs	r3, #1
 8002dbc:	4d58      	ldr	r5, [pc, #352]	@ (8002f20 <HAL_RCC_OscConfig+0x320>)
 8002dbe:	2a00      	cmp	r2, #0
 8002dc0:	d010      	beq.n	8002de4 <HAL_RCC_OscConfig+0x1e4>
 8002dc2:	6a6a      	ldr	r2, [r5, #36]	@ 0x24
 8002dc4:	2702      	movs	r7, #2
 8002dc6:	4313      	orrs	r3, r2
 8002dc8:	626b      	str	r3, [r5, #36]	@ 0x24
 8002dca:	f7ff f89d 	bl	8001f08 <HAL_GetTick>
 8002dce:	0006      	movs	r6, r0
 8002dd0:	6a6b      	ldr	r3, [r5, #36]	@ 0x24
 8002dd2:	423b      	tst	r3, r7
 8002dd4:	d000      	beq.n	8002dd8 <HAL_RCC_OscConfig+0x1d8>
 8002dd6:	e726      	b.n	8002c26 <HAL_RCC_OscConfig+0x26>
 8002dd8:	f7ff f896 	bl	8001f08 <HAL_GetTick>
 8002ddc:	1b80      	subs	r0, r0, r6
 8002dde:	2802      	cmp	r0, #2
 8002de0:	d9f6      	bls.n	8002dd0 <HAL_RCC_OscConfig+0x1d0>
 8002de2:	e77a      	b.n	8002cda <HAL_RCC_OscConfig+0xda>
 8002de4:	6a6a      	ldr	r2, [r5, #36]	@ 0x24
 8002de6:	2702      	movs	r7, #2
 8002de8:	439a      	bics	r2, r3
 8002dea:	626a      	str	r2, [r5, #36]	@ 0x24
 8002dec:	f7ff f88c 	bl	8001f08 <HAL_GetTick>
 8002df0:	0006      	movs	r6, r0
 8002df2:	6a6b      	ldr	r3, [r5, #36]	@ 0x24
 8002df4:	423b      	tst	r3, r7
 8002df6:	d100      	bne.n	8002dfa <HAL_RCC_OscConfig+0x1fa>
 8002df8:	e715      	b.n	8002c26 <HAL_RCC_OscConfig+0x26>
 8002dfa:	f7ff f885 	bl	8001f08 <HAL_GetTick>
 8002dfe:	1b80      	subs	r0, r0, r6
 8002e00:	2802      	cmp	r0, #2
 8002e02:	d9f6      	bls.n	8002df2 <HAL_RCC_OscConfig+0x1f2>
 8002e04:	e769      	b.n	8002cda <HAL_RCC_OscConfig+0xda>
 8002e06:	2280      	movs	r2, #128	@ 0x80
 8002e08:	2100      	movs	r1, #0
 8002e0a:	4d45      	ldr	r5, [pc, #276]	@ (8002f20 <HAL_RCC_OscConfig+0x320>)
 8002e0c:	0552      	lsls	r2, r2, #21
 8002e0e:	69eb      	ldr	r3, [r5, #28]
 8002e10:	9100      	str	r1, [sp, #0]
 8002e12:	4213      	tst	r3, r2
 8002e14:	d108      	bne.n	8002e28 <HAL_RCC_OscConfig+0x228>
 8002e16:	69eb      	ldr	r3, [r5, #28]
 8002e18:	4313      	orrs	r3, r2
 8002e1a:	61eb      	str	r3, [r5, #28]
 8002e1c:	69eb      	ldr	r3, [r5, #28]
 8002e1e:	4013      	ands	r3, r2
 8002e20:	9303      	str	r3, [sp, #12]
 8002e22:	9b03      	ldr	r3, [sp, #12]
 8002e24:	2301      	movs	r3, #1
 8002e26:	9300      	str	r3, [sp, #0]
 8002e28:	2780      	movs	r7, #128	@ 0x80
 8002e2a:	4e40      	ldr	r6, [pc, #256]	@ (8002f2c <HAL_RCC_OscConfig+0x32c>)
 8002e2c:	007f      	lsls	r7, r7, #1
 8002e2e:	6833      	ldr	r3, [r6, #0]
 8002e30:	423b      	tst	r3, r7
 8002e32:	d015      	beq.n	8002e60 <HAL_RCC_OscConfig+0x260>
 8002e34:	68a3      	ldr	r3, [r4, #8]
 8002e36:	2b01      	cmp	r3, #1
 8002e38:	d122      	bne.n	8002e80 <HAL_RCC_OscConfig+0x280>
 8002e3a:	6a2a      	ldr	r2, [r5, #32]
 8002e3c:	4313      	orrs	r3, r2
 8002e3e:	622b      	str	r3, [r5, #32]
 8002e40:	f7ff f862 	bl	8001f08 <HAL_GetTick>
 8002e44:	2702      	movs	r7, #2
 8002e46:	0006      	movs	r6, r0
 8002e48:	6a2b      	ldr	r3, [r5, #32]
 8002e4a:	423b      	tst	r3, r7
 8002e4c:	d03f      	beq.n	8002ece <HAL_RCC_OscConfig+0x2ce>
 8002e4e:	9b00      	ldr	r3, [sp, #0]
 8002e50:	2b01      	cmp	r3, #1
 8002e52:	d000      	beq.n	8002e56 <HAL_RCC_OscConfig+0x256>
 8002e54:	e6eb      	b.n	8002c2e <HAL_RCC_OscConfig+0x2e>
 8002e56:	69eb      	ldr	r3, [r5, #28]
 8002e58:	4a35      	ldr	r2, [pc, #212]	@ (8002f30 <HAL_RCC_OscConfig+0x330>)
 8002e5a:	4013      	ands	r3, r2
 8002e5c:	61eb      	str	r3, [r5, #28]
 8002e5e:	e6e6      	b.n	8002c2e <HAL_RCC_OscConfig+0x2e>
 8002e60:	6833      	ldr	r3, [r6, #0]
 8002e62:	433b      	orrs	r3, r7
 8002e64:	6033      	str	r3, [r6, #0]
 8002e66:	f7ff f84f 	bl	8001f08 <HAL_GetTick>
 8002e6a:	9001      	str	r0, [sp, #4]
 8002e6c:	6833      	ldr	r3, [r6, #0]
 8002e6e:	423b      	tst	r3, r7
 8002e70:	d1e0      	bne.n	8002e34 <HAL_RCC_OscConfig+0x234>
 8002e72:	f7ff f849 	bl	8001f08 <HAL_GetTick>
 8002e76:	9b01      	ldr	r3, [sp, #4]
 8002e78:	1ac0      	subs	r0, r0, r3
 8002e7a:	2864      	cmp	r0, #100	@ 0x64
 8002e7c:	d9f6      	bls.n	8002e6c <HAL_RCC_OscConfig+0x26c>
 8002e7e:	e72c      	b.n	8002cda <HAL_RCC_OscConfig+0xda>
 8002e80:	2201      	movs	r2, #1
 8002e82:	2b00      	cmp	r3, #0
 8002e84:	d114      	bne.n	8002eb0 <HAL_RCC_OscConfig+0x2b0>
 8002e86:	6a2b      	ldr	r3, [r5, #32]
 8002e88:	2702      	movs	r7, #2
 8002e8a:	4393      	bics	r3, r2
 8002e8c:	622b      	str	r3, [r5, #32]
 8002e8e:	6a2b      	ldr	r3, [r5, #32]
 8002e90:	3203      	adds	r2, #3
 8002e92:	4393      	bics	r3, r2
 8002e94:	622b      	str	r3, [r5, #32]
 8002e96:	f7ff f837 	bl	8001f08 <HAL_GetTick>
 8002e9a:	0006      	movs	r6, r0
 8002e9c:	6a2b      	ldr	r3, [r5, #32]
 8002e9e:	423b      	tst	r3, r7
 8002ea0:	d0d5      	beq.n	8002e4e <HAL_RCC_OscConfig+0x24e>
 8002ea2:	f7ff f831 	bl	8001f08 <HAL_GetTick>
 8002ea6:	4b23      	ldr	r3, [pc, #140]	@ (8002f34 <HAL_RCC_OscConfig+0x334>)
 8002ea8:	1b80      	subs	r0, r0, r6
 8002eaa:	4298      	cmp	r0, r3
 8002eac:	d9f6      	bls.n	8002e9c <HAL_RCC_OscConfig+0x29c>
 8002eae:	e714      	b.n	8002cda <HAL_RCC_OscConfig+0xda>
 8002eb0:	2b05      	cmp	r3, #5
 8002eb2:	d105      	bne.n	8002ec0 <HAL_RCC_OscConfig+0x2c0>
 8002eb4:	6a29      	ldr	r1, [r5, #32]
 8002eb6:	3b01      	subs	r3, #1
 8002eb8:	430b      	orrs	r3, r1
 8002eba:	622b      	str	r3, [r5, #32]
 8002ebc:	6a2b      	ldr	r3, [r5, #32]
 8002ebe:	e7bd      	b.n	8002e3c <HAL_RCC_OscConfig+0x23c>
 8002ec0:	6a2b      	ldr	r3, [r5, #32]
 8002ec2:	4393      	bics	r3, r2
 8002ec4:	2204      	movs	r2, #4
 8002ec6:	622b      	str	r3, [r5, #32]
 8002ec8:	6a2b      	ldr	r3, [r5, #32]
 8002eca:	4393      	bics	r3, r2
 8002ecc:	e7b7      	b.n	8002e3e <HAL_RCC_OscConfig+0x23e>
 8002ece:	f7ff f81b 	bl	8001f08 <HAL_GetTick>
 8002ed2:	4b18      	ldr	r3, [pc, #96]	@ (8002f34 <HAL_RCC_OscConfig+0x334>)
 8002ed4:	1b80      	subs	r0, r0, r6
 8002ed6:	4298      	cmp	r0, r3
 8002ed8:	d9b6      	bls.n	8002e48 <HAL_RCC_OscConfig+0x248>
 8002eda:	e6fe      	b.n	8002cda <HAL_RCC_OscConfig+0xda>
 8002edc:	f7ff f814 	bl	8001f08 <HAL_GetTick>
 8002ee0:	1b80      	subs	r0, r0, r6
 8002ee2:	2802      	cmp	r0, #2
 8002ee4:	d800      	bhi.n	8002ee8 <HAL_RCC_OscConfig+0x2e8>
 8002ee6:	e6b5      	b.n	8002c54 <HAL_RCC_OscConfig+0x54>
 8002ee8:	e6f7      	b.n	8002cda <HAL_RCC_OscConfig+0xda>
 8002eea:	3205      	adds	r2, #5
 8002eec:	d103      	bne.n	8002ef6 <HAL_RCC_OscConfig+0x2f6>
 8002eee:	6b6a      	ldr	r2, [r5, #52]	@ 0x34
 8002ef0:	439a      	bics	r2, r3
 8002ef2:	636a      	str	r2, [r5, #52]	@ 0x34
 8002ef4:	e6b2      	b.n	8002c5c <HAL_RCC_OscConfig+0x5c>
 8002ef6:	6b6a      	ldr	r2, [r5, #52]	@ 0x34
 8002ef8:	2702      	movs	r7, #2
 8002efa:	4313      	orrs	r3, r2
 8002efc:	2201      	movs	r2, #1
 8002efe:	636b      	str	r3, [r5, #52]	@ 0x34
 8002f00:	6b6b      	ldr	r3, [r5, #52]	@ 0x34
 8002f02:	4393      	bics	r3, r2
 8002f04:	636b      	str	r3, [r5, #52]	@ 0x34
 8002f06:	f7fe ffff 	bl	8001f08 <HAL_GetTick>
 8002f0a:	0006      	movs	r6, r0
 8002f0c:	6b6b      	ldr	r3, [r5, #52]	@ 0x34
 8002f0e:	423b      	tst	r3, r7
 8002f10:	d100      	bne.n	8002f14 <HAL_RCC_OscConfig+0x314>
 8002f12:	e6aa      	b.n	8002c6a <HAL_RCC_OscConfig+0x6a>
 8002f14:	f7fe fff8 	bl	8001f08 <HAL_GetTick>
 8002f18:	1b80      	subs	r0, r0, r6
 8002f1a:	2802      	cmp	r0, #2
 8002f1c:	d9f6      	bls.n	8002f0c <HAL_RCC_OscConfig+0x30c>
 8002f1e:	e6dc      	b.n	8002cda <HAL_RCC_OscConfig+0xda>
 8002f20:	40021000 	.word	0x40021000
 8002f24:	fffeffff 	.word	0xfffeffff
 8002f28:	fffbffff 	.word	0xfffbffff
 8002f2c:	40007000 	.word	0x40007000
 8002f30:	efffffff 	.word	0xefffffff
 8002f34:	00001388 	.word	0x00001388
 8002f38:	220c      	movs	r2, #12
 8002f3a:	4d54      	ldr	r5, [pc, #336]	@ (800308c <HAL_RCC_OscConfig+0x48c>)
 8002f3c:	686b      	ldr	r3, [r5, #4]
 8002f3e:	4013      	ands	r3, r2
 8002f40:	4293      	cmp	r3, r2
 8002f42:	d009      	beq.n	8002f58 <HAL_RCC_OscConfig+0x358>
 8002f44:	686b      	ldr	r3, [r5, #4]
 8002f46:	4013      	ands	r3, r2
 8002f48:	2b08      	cmp	r3, #8
 8002f4a:	d10e      	bne.n	8002f6a <HAL_RCC_OscConfig+0x36a>
 8002f4c:	22c0      	movs	r2, #192	@ 0xc0
 8002f4e:	686b      	ldr	r3, [r5, #4]
 8002f50:	0252      	lsls	r2, r2, #9
 8002f52:	4013      	ands	r3, r2
 8002f54:	4293      	cmp	r3, r2
 8002f56:	d108      	bne.n	8002f6a <HAL_RCC_OscConfig+0x36a>
 8002f58:	6b6b      	ldr	r3, [r5, #52]	@ 0x34
 8002f5a:	03db      	lsls	r3, r3, #15
 8002f5c:	d400      	bmi.n	8002f60 <HAL_RCC_OscConfig+0x360>
 8002f5e:	e688      	b.n	8002c72 <HAL_RCC_OscConfig+0x72>
 8002f60:	6a23      	ldr	r3, [r4, #32]
 8002f62:	2b01      	cmp	r3, #1
 8002f64:	d000      	beq.n	8002f68 <HAL_RCC_OscConfig+0x368>
 8002f66:	e650      	b.n	8002c0a <HAL_RCC_OscConfig+0xa>
 8002f68:	e683      	b.n	8002c72 <HAL_RCC_OscConfig+0x72>
 8002f6a:	6a23      	ldr	r3, [r4, #32]
 8002f6c:	2b00      	cmp	r3, #0
 8002f6e:	d011      	beq.n	8002f94 <HAL_RCC_OscConfig+0x394>
 8002f70:	2780      	movs	r7, #128	@ 0x80
 8002f72:	6b6b      	ldr	r3, [r5, #52]	@ 0x34
 8002f74:	027f      	lsls	r7, r7, #9
 8002f76:	433b      	orrs	r3, r7
 8002f78:	636b      	str	r3, [r5, #52]	@ 0x34
 8002f7a:	f7fe ffc5 	bl	8001f08 <HAL_GetTick>
 8002f7e:	0006      	movs	r6, r0
 8002f80:	6b6b      	ldr	r3, [r5, #52]	@ 0x34
 8002f82:	423b      	tst	r3, r7
 8002f84:	d000      	beq.n	8002f88 <HAL_RCC_OscConfig+0x388>
 8002f86:	e674      	b.n	8002c72 <HAL_RCC_OscConfig+0x72>
 8002f88:	f7fe ffbe 	bl	8001f08 <HAL_GetTick>
 8002f8c:	1b80      	subs	r0, r0, r6
 8002f8e:	2802      	cmp	r0, #2
 8002f90:	d9f6      	bls.n	8002f80 <HAL_RCC_OscConfig+0x380>
 8002f92:	e6a2      	b.n	8002cda <HAL_RCC_OscConfig+0xda>
 8002f94:	6b6b      	ldr	r3, [r5, #52]	@ 0x34
 8002f96:	4a3e      	ldr	r2, [pc, #248]	@ (8003090 <HAL_RCC_OscConfig+0x490>)
 8002f98:	2780      	movs	r7, #128	@ 0x80
 8002f9a:	4013      	ands	r3, r2
 8002f9c:	636b      	str	r3, [r5, #52]	@ 0x34
 8002f9e:	f7fe ffb3 	bl	8001f08 <HAL_GetTick>
 8002fa2:	0006      	movs	r6, r0
 8002fa4:	027f      	lsls	r7, r7, #9
 8002fa6:	6b6b      	ldr	r3, [r5, #52]	@ 0x34
 8002fa8:	423b      	tst	r3, r7
 8002faa:	d100      	bne.n	8002fae <HAL_RCC_OscConfig+0x3ae>
 8002fac:	e661      	b.n	8002c72 <HAL_RCC_OscConfig+0x72>
 8002fae:	f7fe ffab 	bl	8001f08 <HAL_GetTick>
 8002fb2:	1b80      	subs	r0, r0, r6
 8002fb4:	2802      	cmp	r0, #2
 8002fb6:	d9f6      	bls.n	8002fa6 <HAL_RCC_OscConfig+0x3a6>
 8002fb8:	e68f      	b.n	8002cda <HAL_RCC_OscConfig+0xda>
 8002fba:	210c      	movs	r1, #12
 8002fbc:	4d33      	ldr	r5, [pc, #204]	@ (800308c <HAL_RCC_OscConfig+0x48c>)
 8002fbe:	686a      	ldr	r2, [r5, #4]
 8002fc0:	400a      	ands	r2, r1
 8002fc2:	2a08      	cmp	r2, #8
 8002fc4:	d047      	beq.n	8003056 <HAL_RCC_OscConfig+0x456>
 8002fc6:	4a33      	ldr	r2, [pc, #204]	@ (8003094 <HAL_RCC_OscConfig+0x494>)
 8002fc8:	2b02      	cmp	r3, #2
 8002fca:	d132      	bne.n	8003032 <HAL_RCC_OscConfig+0x432>
 8002fcc:	682b      	ldr	r3, [r5, #0]
 8002fce:	2780      	movs	r7, #128	@ 0x80
 8002fd0:	4013      	ands	r3, r2
 8002fd2:	602b      	str	r3, [r5, #0]
 8002fd4:	f7fe ff98 	bl	8001f08 <HAL_GetTick>
 8002fd8:	0006      	movs	r6, r0
 8002fda:	04bf      	lsls	r7, r7, #18
 8002fdc:	682b      	ldr	r3, [r5, #0]
 8002fde:	423b      	tst	r3, r7
 8002fe0:	d121      	bne.n	8003026 <HAL_RCC_OscConfig+0x426>
 8002fe2:	220f      	movs	r2, #15
 8002fe4:	6aeb      	ldr	r3, [r5, #44]	@ 0x2c
 8002fe6:	2680      	movs	r6, #128	@ 0x80
 8002fe8:	4393      	bics	r3, r2
 8002fea:	6b22      	ldr	r2, [r4, #48]	@ 0x30
 8002fec:	04b6      	lsls	r6, r6, #18
 8002fee:	4313      	orrs	r3, r2
 8002ff0:	62eb      	str	r3, [r5, #44]	@ 0x2c
 8002ff2:	6aa1      	ldr	r1, [r4, #40]	@ 0x28
 8002ff4:	6ae3      	ldr	r3, [r4, #44]	@ 0x2c
 8002ff6:	686a      	ldr	r2, [r5, #4]
 8002ff8:	430b      	orrs	r3, r1
 8002ffa:	4927      	ldr	r1, [pc, #156]	@ (8003098 <HAL_RCC_OscConfig+0x498>)
 8002ffc:	400a      	ands	r2, r1
 8002ffe:	4313      	orrs	r3, r2
 8003000:	606b      	str	r3, [r5, #4]
 8003002:	2380      	movs	r3, #128	@ 0x80
 8003004:	682a      	ldr	r2, [r5, #0]
 8003006:	045b      	lsls	r3, r3, #17
 8003008:	4313      	orrs	r3, r2
 800300a:	602b      	str	r3, [r5, #0]
 800300c:	f7fe ff7c 	bl	8001f08 <HAL_GetTick>
 8003010:	0004      	movs	r4, r0
 8003012:	682b      	ldr	r3, [r5, #0]
 8003014:	4233      	tst	r3, r6
 8003016:	d000      	beq.n	800301a <HAL_RCC_OscConfig+0x41a>
 8003018:	e62f      	b.n	8002c7a <HAL_RCC_OscConfig+0x7a>
 800301a:	f7fe ff75 	bl	8001f08 <HAL_GetTick>
 800301e:	1b00      	subs	r0, r0, r4
 8003020:	2802      	cmp	r0, #2
 8003022:	d9f6      	bls.n	8003012 <HAL_RCC_OscConfig+0x412>
 8003024:	e659      	b.n	8002cda <HAL_RCC_OscConfig+0xda>
 8003026:	f7fe ff6f 	bl	8001f08 <HAL_GetTick>
 800302a:	1b80      	subs	r0, r0, r6
 800302c:	2802      	cmp	r0, #2
 800302e:	d9d5      	bls.n	8002fdc <HAL_RCC_OscConfig+0x3dc>
 8003030:	e653      	b.n	8002cda <HAL_RCC_OscConfig+0xda>
 8003032:	682b      	ldr	r3, [r5, #0]
 8003034:	2680      	movs	r6, #128	@ 0x80
 8003036:	4013      	ands	r3, r2
 8003038:	602b      	str	r3, [r5, #0]
 800303a:	f7fe ff65 	bl	8001f08 <HAL_GetTick>
 800303e:	0004      	movs	r4, r0
 8003040:	04b6      	lsls	r6, r6, #18
 8003042:	682b      	ldr	r3, [r5, #0]
 8003044:	4233      	tst	r3, r6
 8003046:	d100      	bne.n	800304a <HAL_RCC_OscConfig+0x44a>
 8003048:	e617      	b.n	8002c7a <HAL_RCC_OscConfig+0x7a>
 800304a:	f7fe ff5d 	bl	8001f08 <HAL_GetTick>
 800304e:	1b00      	subs	r0, r0, r4
 8003050:	2802      	cmp	r0, #2
 8003052:	d9f6      	bls.n	8003042 <HAL_RCC_OscConfig+0x442>
 8003054:	e641      	b.n	8002cda <HAL_RCC_OscConfig+0xda>
 8003056:	2b01      	cmp	r3, #1
 8003058:	d100      	bne.n	800305c <HAL_RCC_OscConfig+0x45c>
 800305a:	e5d6      	b.n	8002c0a <HAL_RCC_OscConfig+0xa>
 800305c:	22c0      	movs	r2, #192	@ 0xc0
 800305e:	6868      	ldr	r0, [r5, #4]
 8003060:	6aa1      	ldr	r1, [r4, #40]	@ 0x28
 8003062:	0252      	lsls	r2, r2, #9
 8003064:	6aeb      	ldr	r3, [r5, #44]	@ 0x2c
 8003066:	4002      	ands	r2, r0
 8003068:	428a      	cmp	r2, r1
 800306a:	d000      	beq.n	800306e <HAL_RCC_OscConfig+0x46e>
 800306c:	e5cd      	b.n	8002c0a <HAL_RCC_OscConfig+0xa>
 800306e:	220f      	movs	r2, #15
 8003070:	4013      	ands	r3, r2
 8003072:	6b22      	ldr	r2, [r4, #48]	@ 0x30
 8003074:	4293      	cmp	r3, r2
 8003076:	d000      	beq.n	800307a <HAL_RCC_OscConfig+0x47a>
 8003078:	e5c7      	b.n	8002c0a <HAL_RCC_OscConfig+0xa>
 800307a:	23f0      	movs	r3, #240	@ 0xf0
 800307c:	039b      	lsls	r3, r3, #14
 800307e:	4018      	ands	r0, r3
 8003080:	6ae3      	ldr	r3, [r4, #44]	@ 0x2c
 8003082:	1ac0      	subs	r0, r0, r3
 8003084:	1e43      	subs	r3, r0, #1
 8003086:	4198      	sbcs	r0, r3
 8003088:	b2c0      	uxtb	r0, r0
 800308a:	e5bf      	b.n	8002c0c <HAL_RCC_OscConfig+0xc>
 800308c:	40021000 	.word	0x40021000
 8003090:	fffeffff 	.word	0xfffeffff
 8003094:	feffffff 	.word	0xfeffffff
 8003098:	ffc27fff 	.word	0xffc27fff

0800309c <HAL_RCC_GetSysClockFreq>:
 800309c:	b570      	push	{r4, r5, r6, lr}
 800309e:	b088      	sub	sp, #32
 80030a0:	2210      	movs	r2, #16
 80030a2:	4919      	ldr	r1, [pc, #100]	@ (8003108 <HAL_RCC_GetSysClockFreq+0x6c>)
 80030a4:	4668      	mov	r0, sp
 80030a6:	ad04      	add	r5, sp, #16
 80030a8:	f000 fe56 	bl	8003d58 <memcpy>
 80030ac:	2210      	movs	r2, #16
 80030ae:	0028      	movs	r0, r5
 80030b0:	4916      	ldr	r1, [pc, #88]	@ (800310c <HAL_RCC_GetSysClockFreq+0x70>)
 80030b2:	f000 fe51 	bl	8003d58 <memcpy>
 80030b6:	200c      	movs	r0, #12
 80030b8:	4e15      	ldr	r6, [pc, #84]	@ (8003110 <HAL_RCC_GetSysClockFreq+0x74>)
 80030ba:	6873      	ldr	r3, [r6, #4]
 80030bc:	4018      	ands	r0, r3
 80030be:	2808      	cmp	r0, #8
 80030c0:	d009      	beq.n	80030d6 <HAL_RCC_GetSysClockFreq+0x3a>
 80030c2:	380c      	subs	r0, #12
 80030c4:	4243      	negs	r3, r0
 80030c6:	4158      	adcs	r0, r3
 80030c8:	4b12      	ldr	r3, [pc, #72]	@ (8003114 <HAL_RCC_GetSysClockFreq+0x78>)
 80030ca:	4240      	negs	r0, r0
 80030cc:	4018      	ands	r0, r3
 80030ce:	4b12      	ldr	r3, [pc, #72]	@ (8003118 <HAL_RCC_GetSysClockFreq+0x7c>)
 80030d0:	18c0      	adds	r0, r0, r3
 80030d2:	b008      	add	sp, #32
 80030d4:	bd70      	pop	{r4, r5, r6, pc}
 80030d6:	210f      	movs	r1, #15
 80030d8:	4668      	mov	r0, sp
 80030da:	0c9a      	lsrs	r2, r3, #18
 80030dc:	400a      	ands	r2, r1
 80030de:	5c84      	ldrb	r4, [r0, r2]
 80030e0:	6af2      	ldr	r2, [r6, #44]	@ 0x2c
 80030e2:	2080      	movs	r0, #128	@ 0x80
 80030e4:	400a      	ands	r2, r1
 80030e6:	5ca9      	ldrb	r1, [r5, r2]
 80030e8:	22c0      	movs	r2, #192	@ 0xc0
 80030ea:	0252      	lsls	r2, r2, #9
 80030ec:	4013      	ands	r3, r2
 80030ee:	0240      	lsls	r0, r0, #9
 80030f0:	4283      	cmp	r3, r0
 80030f2:	d101      	bne.n	80030f8 <HAL_RCC_GetSysClockFreq+0x5c>
 80030f4:	4808      	ldr	r0, [pc, #32]	@ (8003118 <HAL_RCC_GetSysClockFreq+0x7c>)
 80030f6:	e002      	b.n	80030fe <HAL_RCC_GetSysClockFreq+0x62>
 80030f8:	4293      	cmp	r3, r2
 80030fa:	d1fb      	bne.n	80030f4 <HAL_RCC_GetSysClockFreq+0x58>
 80030fc:	4807      	ldr	r0, [pc, #28]	@ (800311c <HAL_RCC_GetSysClockFreq+0x80>)
 80030fe:	f7fd f81f 	bl	8000140 <__udivsi3>
 8003102:	4360      	muls	r0, r4
 8003104:	e7e5      	b.n	80030d2 <HAL_RCC_GetSysClockFreq+0x36>
 8003106:	46c0      	nop			@ (mov r8, r8)
 8003108:	080061d0 	.word	0x080061d0
 800310c:	080061e1 	.word	0x080061e1
 8003110:	40021000 	.word	0x40021000
 8003114:	02625a00 	.word	0x02625a00
 8003118:	007a1200 	.word	0x007a1200
 800311c:	02dc6c00 	.word	0x02dc6c00

08003120 <HAL_RCC_ClockConfig>:
 8003120:	b5f7      	push	{r0, r1, r2, r4, r5, r6, r7, lr}
 8003122:	0004      	movs	r4, r0
 8003124:	000f      	movs	r7, r1
 8003126:	2800      	cmp	r0, #0
 8003128:	d101      	bne.n	800312e <HAL_RCC_ClockConfig+0xe>
 800312a:	2001      	movs	r0, #1
 800312c:	bdfe      	pop	{r1, r2, r3, r4, r5, r6, r7, pc}
 800312e:	2201      	movs	r2, #1
 8003130:	4d3b      	ldr	r5, [pc, #236]	@ (8003220 <HAL_RCC_ClockConfig+0x100>)
 8003132:	682b      	ldr	r3, [r5, #0]
 8003134:	4013      	ands	r3, r2
 8003136:	428b      	cmp	r3, r1
 8003138:	d31c      	bcc.n	8003174 <HAL_RCC_ClockConfig+0x54>
 800313a:	6822      	ldr	r2, [r4, #0]
 800313c:	0793      	lsls	r3, r2, #30
 800313e:	d422      	bmi.n	8003186 <HAL_RCC_ClockConfig+0x66>
 8003140:	07d2      	lsls	r2, r2, #31
 8003142:	d42f      	bmi.n	80031a4 <HAL_RCC_ClockConfig+0x84>
 8003144:	2301      	movs	r3, #1
 8003146:	682a      	ldr	r2, [r5, #0]
 8003148:	401a      	ands	r2, r3
 800314a:	42ba      	cmp	r2, r7
 800314c:	d859      	bhi.n	8003202 <HAL_RCC_ClockConfig+0xe2>
 800314e:	6823      	ldr	r3, [r4, #0]
 8003150:	4d34      	ldr	r5, [pc, #208]	@ (8003224 <HAL_RCC_ClockConfig+0x104>)
 8003152:	075b      	lsls	r3, r3, #29
 8003154:	d45c      	bmi.n	8003210 <HAL_RCC_ClockConfig+0xf0>
 8003156:	f7ff ffa1 	bl	800309c <HAL_RCC_GetSysClockFreq>
 800315a:	686b      	ldr	r3, [r5, #4]
 800315c:	4a32      	ldr	r2, [pc, #200]	@ (8003228 <HAL_RCC_ClockConfig+0x108>)
 800315e:	061b      	lsls	r3, r3, #24
 8003160:	0f1b      	lsrs	r3, r3, #28
 8003162:	5cd3      	ldrb	r3, [r2, r3]
 8003164:	4931      	ldr	r1, [pc, #196]	@ (800322c <HAL_RCC_ClockConfig+0x10c>)
 8003166:	40d8      	lsrs	r0, r3
 8003168:	6008      	str	r0, [r1, #0]
 800316a:	2003      	movs	r0, #3
 800316c:	f7fe fe8c 	bl	8001e88 <HAL_InitTick>
 8003170:	2000      	movs	r0, #0
 8003172:	e7db      	b.n	800312c <HAL_RCC_ClockConfig+0xc>
 8003174:	682b      	ldr	r3, [r5, #0]
 8003176:	4393      	bics	r3, r2
 8003178:	430b      	orrs	r3, r1
 800317a:	602b      	str	r3, [r5, #0]
 800317c:	682b      	ldr	r3, [r5, #0]
 800317e:	4013      	ands	r3, r2
 8003180:	428b      	cmp	r3, r1
 8003182:	d1d2      	bne.n	800312a <HAL_RCC_ClockConfig+0xa>
 8003184:	e7d9      	b.n	800313a <HAL_RCC_ClockConfig+0x1a>
 8003186:	4927      	ldr	r1, [pc, #156]	@ (8003224 <HAL_RCC_ClockConfig+0x104>)
 8003188:	0753      	lsls	r3, r2, #29
 800318a:	d504      	bpl.n	8003196 <HAL_RCC_ClockConfig+0x76>
 800318c:	23e0      	movs	r3, #224	@ 0xe0
 800318e:	6848      	ldr	r0, [r1, #4]
 8003190:	00db      	lsls	r3, r3, #3
 8003192:	4303      	orrs	r3, r0
 8003194:	604b      	str	r3, [r1, #4]
 8003196:	20f0      	movs	r0, #240	@ 0xf0
 8003198:	684b      	ldr	r3, [r1, #4]
 800319a:	4383      	bics	r3, r0
 800319c:	68a0      	ldr	r0, [r4, #8]
 800319e:	4303      	orrs	r3, r0
 80031a0:	604b      	str	r3, [r1, #4]
 80031a2:	e7cd      	b.n	8003140 <HAL_RCC_ClockConfig+0x20>
 80031a4:	6862      	ldr	r2, [r4, #4]
 80031a6:	4e1f      	ldr	r6, [pc, #124]	@ (8003224 <HAL_RCC_ClockConfig+0x104>)
 80031a8:	2a01      	cmp	r2, #1
 80031aa:	d11a      	bne.n	80031e2 <HAL_RCC_ClockConfig+0xc2>
 80031ac:	6833      	ldr	r3, [r6, #0]
 80031ae:	039b      	lsls	r3, r3, #14
 80031b0:	d5bb      	bpl.n	800312a <HAL_RCC_ClockConfig+0xa>
 80031b2:	2103      	movs	r1, #3
 80031b4:	6873      	ldr	r3, [r6, #4]
 80031b6:	438b      	bics	r3, r1
 80031b8:	4313      	orrs	r3, r2
 80031ba:	6073      	str	r3, [r6, #4]
 80031bc:	f7fe fea4 	bl	8001f08 <HAL_GetTick>
 80031c0:	9001      	str	r0, [sp, #4]
 80031c2:	230c      	movs	r3, #12
 80031c4:	6872      	ldr	r2, [r6, #4]
 80031c6:	401a      	ands	r2, r3
 80031c8:	6863      	ldr	r3, [r4, #4]
 80031ca:	009b      	lsls	r3, r3, #2
 80031cc:	429a      	cmp	r2, r3
 80031ce:	d0b9      	beq.n	8003144 <HAL_RCC_ClockConfig+0x24>
 80031d0:	f7fe fe9a 	bl	8001f08 <HAL_GetTick>
 80031d4:	9b01      	ldr	r3, [sp, #4]
 80031d6:	1ac0      	subs	r0, r0, r3
 80031d8:	4b15      	ldr	r3, [pc, #84]	@ (8003230 <HAL_RCC_ClockConfig+0x110>)
 80031da:	4298      	cmp	r0, r3
 80031dc:	d9f1      	bls.n	80031c2 <HAL_RCC_ClockConfig+0xa2>
 80031de:	2003      	movs	r0, #3
 80031e0:	e7a4      	b.n	800312c <HAL_RCC_ClockConfig+0xc>
 80031e2:	2a02      	cmp	r2, #2
 80031e4:	d103      	bne.n	80031ee <HAL_RCC_ClockConfig+0xce>
 80031e6:	6833      	ldr	r3, [r6, #0]
 80031e8:	019b      	lsls	r3, r3, #6
 80031ea:	d4e2      	bmi.n	80031b2 <HAL_RCC_ClockConfig+0x92>
 80031ec:	e79d      	b.n	800312a <HAL_RCC_ClockConfig+0xa>
 80031ee:	2a03      	cmp	r2, #3
 80031f0:	d103      	bne.n	80031fa <HAL_RCC_ClockConfig+0xda>
 80031f2:	6b73      	ldr	r3, [r6, #52]	@ 0x34
 80031f4:	03db      	lsls	r3, r3, #15
 80031f6:	d4dc      	bmi.n	80031b2 <HAL_RCC_ClockConfig+0x92>
 80031f8:	e797      	b.n	800312a <HAL_RCC_ClockConfig+0xa>
 80031fa:	6833      	ldr	r3, [r6, #0]
 80031fc:	079b      	lsls	r3, r3, #30
 80031fe:	d4d8      	bmi.n	80031b2 <HAL_RCC_ClockConfig+0x92>
 8003200:	e793      	b.n	800312a <HAL_RCC_ClockConfig+0xa>
 8003202:	682a      	ldr	r2, [r5, #0]
 8003204:	439a      	bics	r2, r3
 8003206:	602a      	str	r2, [r5, #0]
 8003208:	682a      	ldr	r2, [r5, #0]
 800320a:	421a      	tst	r2, r3
 800320c:	d09f      	beq.n	800314e <HAL_RCC_ClockConfig+0x2e>
 800320e:	e78c      	b.n	800312a <HAL_RCC_ClockConfig+0xa>
 8003210:	686b      	ldr	r3, [r5, #4]
 8003212:	4a08      	ldr	r2, [pc, #32]	@ (8003234 <HAL_RCC_ClockConfig+0x114>)
 8003214:	4013      	ands	r3, r2
 8003216:	68e2      	ldr	r2, [r4, #12]
 8003218:	4313      	orrs	r3, r2
 800321a:	606b      	str	r3, [r5, #4]
 800321c:	e79b      	b.n	8003156 <HAL_RCC_ClockConfig+0x36>
 800321e:	46c0      	nop			@ (mov r8, r8)
 8003220:	40022000 	.word	0x40022000
 8003224:	40021000 	.word	0x40021000
 8003228:	080061c0 	.word	0x080061c0
 800322c:	200000b8 	.word	0x200000b8
 8003230:	00001388 	.word	0x00001388
 8003234:	fffff8ff 	.word	0xfffff8ff

08003238 <HAL_RCCEx_PeriphCLKConfig>:
 8003238:	b5f0      	push	{r4, r5, r6, r7, lr}
 800323a:	6803      	ldr	r3, [r0, #0]
 800323c:	0005      	movs	r5, r0
 800323e:	b085      	sub	sp, #20
 8003240:	03db      	lsls	r3, r3, #15
 8003242:	d52b      	bpl.n	800329c <HAL_RCCEx_PeriphCLKConfig+0x64>
 8003244:	2280      	movs	r2, #128	@ 0x80
 8003246:	2100      	movs	r1, #0
 8003248:	4c46      	ldr	r4, [pc, #280]	@ (8003364 <HAL_RCCEx_PeriphCLKConfig+0x12c>)
 800324a:	0552      	lsls	r2, r2, #21
 800324c:	69e3      	ldr	r3, [r4, #28]
 800324e:	9100      	str	r1, [sp, #0]
 8003250:	4213      	tst	r3, r2
 8003252:	d108      	bne.n	8003266 <HAL_RCCEx_PeriphCLKConfig+0x2e>
 8003254:	69e3      	ldr	r3, [r4, #28]
 8003256:	4313      	orrs	r3, r2
 8003258:	61e3      	str	r3, [r4, #28]
 800325a:	69e3      	ldr	r3, [r4, #28]
 800325c:	4013      	ands	r3, r2
 800325e:	9303      	str	r3, [sp, #12]
 8003260:	9b03      	ldr	r3, [sp, #12]
 8003262:	2301      	movs	r3, #1
 8003264:	9300      	str	r3, [sp, #0]
 8003266:	2780      	movs	r7, #128	@ 0x80
 8003268:	4e3f      	ldr	r6, [pc, #252]	@ (8003368 <HAL_RCCEx_PeriphCLKConfig+0x130>)
 800326a:	007f      	lsls	r7, r7, #1
 800326c:	6833      	ldr	r3, [r6, #0]
 800326e:	423b      	tst	r3, r7
 8003270:	d03d      	beq.n	80032ee <HAL_RCCEx_PeriphCLKConfig+0xb6>
 8003272:	6a21      	ldr	r1, [r4, #32]
 8003274:	22c0      	movs	r2, #192	@ 0xc0
 8003276:	0008      	movs	r0, r1
 8003278:	0092      	lsls	r2, r2, #2
 800327a:	686b      	ldr	r3, [r5, #4]
 800327c:	4e3b      	ldr	r6, [pc, #236]	@ (800336c <HAL_RCCEx_PeriphCLKConfig+0x134>)
 800327e:	4010      	ands	r0, r2
 8003280:	4211      	tst	r1, r2
 8003282:	d146      	bne.n	8003312 <HAL_RCCEx_PeriphCLKConfig+0xda>
 8003284:	6a23      	ldr	r3, [r4, #32]
 8003286:	686a      	ldr	r2, [r5, #4]
 8003288:	4033      	ands	r3, r6
 800328a:	4313      	orrs	r3, r2
 800328c:	6223      	str	r3, [r4, #32]
 800328e:	9b00      	ldr	r3, [sp, #0]
 8003290:	2b01      	cmp	r3, #1
 8003292:	d103      	bne.n	800329c <HAL_RCCEx_PeriphCLKConfig+0x64>
 8003294:	69e3      	ldr	r3, [r4, #28]
 8003296:	4a36      	ldr	r2, [pc, #216]	@ (8003370 <HAL_RCCEx_PeriphCLKConfig+0x138>)
 8003298:	4013      	ands	r3, r2
 800329a:	61e3      	str	r3, [r4, #28]
 800329c:	682b      	ldr	r3, [r5, #0]
 800329e:	07da      	lsls	r2, r3, #31
 80032a0:	d506      	bpl.n	80032b0 <HAL_RCCEx_PeriphCLKConfig+0x78>
 80032a2:	2003      	movs	r0, #3
 80032a4:	492f      	ldr	r1, [pc, #188]	@ (8003364 <HAL_RCCEx_PeriphCLKConfig+0x12c>)
 80032a6:	6b0a      	ldr	r2, [r1, #48]	@ 0x30
 80032a8:	4382      	bics	r2, r0
 80032aa:	68a8      	ldr	r0, [r5, #8]
 80032ac:	4302      	orrs	r2, r0
 80032ae:	630a      	str	r2, [r1, #48]	@ 0x30
 80032b0:	079a      	lsls	r2, r3, #30
 80032b2:	d506      	bpl.n	80032c2 <HAL_RCCEx_PeriphCLKConfig+0x8a>
 80032b4:	492b      	ldr	r1, [pc, #172]	@ (8003364 <HAL_RCCEx_PeriphCLKConfig+0x12c>)
 80032b6:	482f      	ldr	r0, [pc, #188]	@ (8003374 <HAL_RCCEx_PeriphCLKConfig+0x13c>)
 80032b8:	6b0a      	ldr	r2, [r1, #48]	@ 0x30
 80032ba:	4002      	ands	r2, r0
 80032bc:	68e8      	ldr	r0, [r5, #12]
 80032be:	4302      	orrs	r2, r0
 80032c0:	630a      	str	r2, [r1, #48]	@ 0x30
 80032c2:	069a      	lsls	r2, r3, #26
 80032c4:	d506      	bpl.n	80032d4 <HAL_RCCEx_PeriphCLKConfig+0x9c>
 80032c6:	2010      	movs	r0, #16
 80032c8:	4926      	ldr	r1, [pc, #152]	@ (8003364 <HAL_RCCEx_PeriphCLKConfig+0x12c>)
 80032ca:	6b0a      	ldr	r2, [r1, #48]	@ 0x30
 80032cc:	4382      	bics	r2, r0
 80032ce:	6928      	ldr	r0, [r5, #16]
 80032d0:	4302      	orrs	r2, r0
 80032d2:	630a      	str	r2, [r1, #48]	@ 0x30
 80032d4:	039a      	lsls	r2, r3, #14
 80032d6:	d506      	bpl.n	80032e6 <HAL_RCCEx_PeriphCLKConfig+0xae>
 80032d8:	2080      	movs	r0, #128	@ 0x80
 80032da:	4922      	ldr	r1, [pc, #136]	@ (8003364 <HAL_RCCEx_PeriphCLKConfig+0x12c>)
 80032dc:	6b0a      	ldr	r2, [r1, #48]	@ 0x30
 80032de:	4382      	bics	r2, r0
 80032e0:	69a8      	ldr	r0, [r5, #24]
 80032e2:	4302      	orrs	r2, r0
 80032e4:	630a      	str	r2, [r1, #48]	@ 0x30
 80032e6:	055b      	lsls	r3, r3, #21
 80032e8:	d433      	bmi.n	8003352 <HAL_RCCEx_PeriphCLKConfig+0x11a>
 80032ea:	2000      	movs	r0, #0
 80032ec:	e00f      	b.n	800330e <HAL_RCCEx_PeriphCLKConfig+0xd6>
 80032ee:	6833      	ldr	r3, [r6, #0]
 80032f0:	433b      	orrs	r3, r7
 80032f2:	6033      	str	r3, [r6, #0]
 80032f4:	f7fe fe08 	bl	8001f08 <HAL_GetTick>
 80032f8:	9001      	str	r0, [sp, #4]
 80032fa:	6833      	ldr	r3, [r6, #0]
 80032fc:	423b      	tst	r3, r7
 80032fe:	d1b8      	bne.n	8003272 <HAL_RCCEx_PeriphCLKConfig+0x3a>
 8003300:	f7fe fe02 	bl	8001f08 <HAL_GetTick>
 8003304:	9b01      	ldr	r3, [sp, #4]
 8003306:	1ac0      	subs	r0, r0, r3
 8003308:	2864      	cmp	r0, #100	@ 0x64
 800330a:	d9f6      	bls.n	80032fa <HAL_RCCEx_PeriphCLKConfig+0xc2>
 800330c:	2003      	movs	r0, #3
 800330e:	b005      	add	sp, #20
 8003310:	bdf0      	pop	{r4, r5, r6, r7, pc}
 8003312:	4013      	ands	r3, r2
 8003314:	4283      	cmp	r3, r0
 8003316:	d0b5      	beq.n	8003284 <HAL_RCCEx_PeriphCLKConfig+0x4c>
 8003318:	2280      	movs	r2, #128	@ 0x80
 800331a:	6a23      	ldr	r3, [r4, #32]
 800331c:	6a20      	ldr	r0, [r4, #32]
 800331e:	0019      	movs	r1, r3
 8003320:	0252      	lsls	r2, r2, #9
 8003322:	4302      	orrs	r2, r0
 8003324:	6222      	str	r2, [r4, #32]
 8003326:	6a22      	ldr	r2, [r4, #32]
 8003328:	4813      	ldr	r0, [pc, #76]	@ (8003378 <HAL_RCCEx_PeriphCLKConfig+0x140>)
 800332a:	4031      	ands	r1, r6
 800332c:	4002      	ands	r2, r0
 800332e:	6222      	str	r2, [r4, #32]
 8003330:	6221      	str	r1, [r4, #32]
 8003332:	07db      	lsls	r3, r3, #31
 8003334:	d5a6      	bpl.n	8003284 <HAL_RCCEx_PeriphCLKConfig+0x4c>
 8003336:	f7fe fde7 	bl	8001f08 <HAL_GetTick>
 800333a:	0007      	movs	r7, r0
 800333c:	2202      	movs	r2, #2
 800333e:	6a23      	ldr	r3, [r4, #32]
 8003340:	4213      	tst	r3, r2
 8003342:	d19f      	bne.n	8003284 <HAL_RCCEx_PeriphCLKConfig+0x4c>
 8003344:	f7fe fde0 	bl	8001f08 <HAL_GetTick>
 8003348:	4b0c      	ldr	r3, [pc, #48]	@ (800337c <HAL_RCCEx_PeriphCLKConfig+0x144>)
 800334a:	1bc0      	subs	r0, r0, r7
 800334c:	4298      	cmp	r0, r3
 800334e:	d9f5      	bls.n	800333c <HAL_RCCEx_PeriphCLKConfig+0x104>
 8003350:	e7dc      	b.n	800330c <HAL_RCCEx_PeriphCLKConfig+0xd4>
 8003352:	2140      	movs	r1, #64	@ 0x40
 8003354:	4a03      	ldr	r2, [pc, #12]	@ (8003364 <HAL_RCCEx_PeriphCLKConfig+0x12c>)
 8003356:	6b13      	ldr	r3, [r2, #48]	@ 0x30
 8003358:	438b      	bics	r3, r1
 800335a:	6969      	ldr	r1, [r5, #20]
 800335c:	430b      	orrs	r3, r1
 800335e:	6313      	str	r3, [r2, #48]	@ 0x30
 8003360:	e7c3      	b.n	80032ea <HAL_RCCEx_PeriphCLKConfig+0xb2>
 8003362:	46c0      	nop			@ (mov r8, r8)
 8003364:	40021000 	.word	0x40021000
 8003368:	40007000 	.word	0x40007000
 800336c:	fffffcff 	.word	0xfffffcff
 8003370:	efffffff 	.word	0xefffffff
 8003374:	fffcffff 	.word	0xfffcffff
 8003378:	fffeffff 	.word	0xfffeffff
 800337c:	00001388 	.word	0x00001388

08003380 <SPI_WaitFlagStateUntilTimeout.constprop.0>:
 8003380:	b5f0      	push	{r4, r5, r6, r7, lr}
 8003382:	000e      	movs	r6, r1
 8003384:	b085      	sub	sp, #20
 8003386:	0015      	movs	r5, r2
 8003388:	0004      	movs	r4, r0
 800338a:	f7fe fdbd 	bl	8001f08 <HAL_GetTick>
 800338e:	19ad      	adds	r5, r5, r6
 8003390:	1a2d      	subs	r5, r5, r0
 8003392:	f7fe fdb9 	bl	8001f08 <HAL_GetTick>
 8003396:	2780      	movs	r7, #128	@ 0x80
 8003398:	4b25      	ldr	r3, [pc, #148]	@ (8003430 <SPI_WaitFlagStateUntilTimeout.constprop.0+0xb0>)
 800339a:	9001      	str	r0, [sp, #4]
 800339c:	681b      	ldr	r3, [r3, #0]
 800339e:	015b      	lsls	r3, r3, #5
 80033a0:	0d1b      	lsrs	r3, r3, #20
 80033a2:	436b      	muls	r3, r5
 80033a4:	9303      	str	r3, [sp, #12]
 80033a6:	6822      	ldr	r2, [r4, #0]
 80033a8:	6893      	ldr	r3, [r2, #8]
 80033aa:	0018      	movs	r0, r3
 80033ac:	4038      	ands	r0, r7
 80033ae:	423b      	tst	r3, r7
 80033b0:	d032      	beq.n	8003418 <SPI_WaitFlagStateUntilTimeout.constprop.0+0x98>
 80033b2:	1c73      	adds	r3, r6, #1
 80033b4:	d0f8      	beq.n	80033a8 <SPI_WaitFlagStateUntilTimeout.constprop.0+0x28>
 80033b6:	f7fe fda7 	bl	8001f08 <HAL_GetTick>
 80033ba:	9b01      	ldr	r3, [sp, #4]
 80033bc:	1ac0      	subs	r0, r0, r3
 80033be:	42a8      	cmp	r0, r5
 80033c0:	d32c      	bcc.n	800341c <SPI_WaitFlagStateUntilTimeout.constprop.0+0x9c>
 80033c2:	21e0      	movs	r1, #224	@ 0xe0
 80033c4:	6823      	ldr	r3, [r4, #0]
 80033c6:	685a      	ldr	r2, [r3, #4]
 80033c8:	438a      	bics	r2, r1
 80033ca:	605a      	str	r2, [r3, #4]
 80033cc:	2282      	movs	r2, #130	@ 0x82
 80033ce:	6861      	ldr	r1, [r4, #4]
 80033d0:	0052      	lsls	r2, r2, #1
 80033d2:	4291      	cmp	r1, r2
 80033d4:	d10c      	bne.n	80033f0 <SPI_WaitFlagStateUntilTimeout.constprop.0+0x70>
 80033d6:	2180      	movs	r1, #128	@ 0x80
 80033d8:	68a2      	ldr	r2, [r4, #8]
 80033da:	0209      	lsls	r1, r1, #8
 80033dc:	428a      	cmp	r2, r1
 80033de:	d003      	beq.n	80033e8 <SPI_WaitFlagStateUntilTimeout.constprop.0+0x68>
 80033e0:	2180      	movs	r1, #128	@ 0x80
 80033e2:	00c9      	lsls	r1, r1, #3
 80033e4:	428a      	cmp	r2, r1
 80033e6:	d103      	bne.n	80033f0 <SPI_WaitFlagStateUntilTimeout.constprop.0+0x70>
 80033e8:	2140      	movs	r1, #64	@ 0x40
 80033ea:	681a      	ldr	r2, [r3, #0]
 80033ec:	438a      	bics	r2, r1
 80033ee:	601a      	str	r2, [r3, #0]
 80033f0:	2180      	movs	r1, #128	@ 0x80
 80033f2:	6aa2      	ldr	r2, [r4, #40]	@ 0x28
 80033f4:	0189      	lsls	r1, r1, #6
 80033f6:	428a      	cmp	r2, r1
 80033f8:	d106      	bne.n	8003408 <SPI_WaitFlagStateUntilTimeout.constprop.0+0x88>
 80033fa:	6819      	ldr	r1, [r3, #0]
 80033fc:	480d      	ldr	r0, [pc, #52]	@ (8003434 <SPI_WaitFlagStateUntilTimeout.constprop.0+0xb4>)
 80033fe:	4001      	ands	r1, r0
 8003400:	6019      	str	r1, [r3, #0]
 8003402:	6819      	ldr	r1, [r3, #0]
 8003404:	430a      	orrs	r2, r1
 8003406:	601a      	str	r2, [r3, #0]
 8003408:	0023      	movs	r3, r4
 800340a:	2201      	movs	r2, #1
 800340c:	335d      	adds	r3, #93	@ 0x5d
 800340e:	701a      	strb	r2, [r3, #0]
 8003410:	2300      	movs	r3, #0
 8003412:	2003      	movs	r0, #3
 8003414:	345c      	adds	r4, #92	@ 0x5c
 8003416:	7023      	strb	r3, [r4, #0]
 8003418:	b005      	add	sp, #20
 800341a:	bdf0      	pop	{r4, r5, r6, r7, pc}
 800341c:	9b03      	ldr	r3, [sp, #12]
 800341e:	2b00      	cmp	r3, #0
 8003420:	d000      	beq.n	8003424 <SPI_WaitFlagStateUntilTimeout.constprop.0+0xa4>
 8003422:	002b      	movs	r3, r5
 8003424:	9a03      	ldr	r2, [sp, #12]
 8003426:	001d      	movs	r5, r3
 8003428:	3a01      	subs	r2, #1
 800342a:	9203      	str	r2, [sp, #12]
 800342c:	e7bb      	b.n	80033a6 <SPI_WaitFlagStateUntilTimeout.constprop.0+0x26>
 800342e:	46c0      	nop			@ (mov r8, r8)
 8003430:	200000b8 	.word	0x200000b8
 8003434:	ffffdfff 	.word	0xffffdfff

08003438 <SPI_WaitFifoStateUntilTimeout.constprop.0>:
 8003438:	b5f0      	push	{r4, r5, r6, r7, lr}
 800343a:	0017      	movs	r7, r2
 800343c:	2200      	movs	r2, #0
 800343e:	b085      	sub	sp, #20
 8003440:	001d      	movs	r5, r3
 8003442:	ab02      	add	r3, sp, #8
 8003444:	70da      	strb	r2, [r3, #3]
 8003446:	0004      	movs	r4, r0
 8003448:	000e      	movs	r6, r1
 800344a:	f7fe fd5d 	bl	8001f08 <HAL_GetTick>
 800344e:	19ed      	adds	r5, r5, r7
 8003450:	1a2d      	subs	r5, r5, r0
 8003452:	f7fe fd59 	bl	8001f08 <HAL_GetTick>
 8003456:	2223      	movs	r2, #35	@ 0x23
 8003458:	6823      	ldr	r3, [r4, #0]
 800345a:	9000      	str	r0, [sp, #0]
 800345c:	9301      	str	r3, [sp, #4]
 800345e:	4b2a      	ldr	r3, [pc, #168]	@ (8003508 <SPI_WaitFifoStateUntilTimeout.constprop.0+0xd0>)
 8003460:	681b      	ldr	r3, [r3, #0]
 8003462:	4353      	muls	r3, r2
 8003464:	0d1b      	lsrs	r3, r3, #20
 8003466:	436b      	muls	r3, r5
 8003468:	9303      	str	r3, [sp, #12]
 800346a:	ab02      	add	r3, sp, #8
 800346c:	6821      	ldr	r1, [r4, #0]
 800346e:	1cda      	adds	r2, r3, #3
 8003470:	688b      	ldr	r3, [r1, #8]
 8003472:	0018      	movs	r0, r3
 8003474:	4030      	ands	r0, r6
 8003476:	4233      	tst	r3, r6
 8003478:	d03b      	beq.n	80034f2 <SPI_WaitFifoStateUntilTimeout.constprop.0+0xba>
 800347a:	23c0      	movs	r3, #192	@ 0xc0
 800347c:	00db      	lsls	r3, r3, #3
 800347e:	429e      	cmp	r6, r3
 8003480:	d104      	bne.n	800348c <SPI_WaitFifoStateUntilTimeout.constprop.0+0x54>
 8003482:	9b01      	ldr	r3, [sp, #4]
 8003484:	7b1b      	ldrb	r3, [r3, #12]
 8003486:	b2db      	uxtb	r3, r3
 8003488:	7013      	strb	r3, [r2, #0]
 800348a:	7813      	ldrb	r3, [r2, #0]
 800348c:	1c7b      	adds	r3, r7, #1
 800348e:	d0ef      	beq.n	8003470 <SPI_WaitFifoStateUntilTimeout.constprop.0+0x38>
 8003490:	f7fe fd3a 	bl	8001f08 <HAL_GetTick>
 8003494:	9b00      	ldr	r3, [sp, #0]
 8003496:	1ac0      	subs	r0, r0, r3
 8003498:	42a8      	cmp	r0, r5
 800349a:	d32c      	bcc.n	80034f6 <SPI_WaitFifoStateUntilTimeout.constprop.0+0xbe>
 800349c:	21e0      	movs	r1, #224	@ 0xe0
 800349e:	6823      	ldr	r3, [r4, #0]
 80034a0:	685a      	ldr	r2, [r3, #4]
 80034a2:	438a      	bics	r2, r1
 80034a4:	605a      	str	r2, [r3, #4]
 80034a6:	2282      	movs	r2, #130	@ 0x82
 80034a8:	6861      	ldr	r1, [r4, #4]
 80034aa:	0052      	lsls	r2, r2, #1
 80034ac:	4291      	cmp	r1, r2
 80034ae:	d10c      	bne.n	80034ca <SPI_WaitFifoStateUntilTimeout.constprop.0+0x92>
 80034b0:	2180      	movs	r1, #128	@ 0x80
 80034b2:	68a2      	ldr	r2, [r4, #8]
 80034b4:	0209      	lsls	r1, r1, #8
 80034b6:	428a      	cmp	r2, r1
 80034b8:	d003      	beq.n	80034c2 <SPI_WaitFifoStateUntilTimeout.constprop.0+0x8a>
 80034ba:	2180      	movs	r1, #128	@ 0x80
 80034bc:	00c9      	lsls	r1, r1, #3
 80034be:	428a      	cmp	r2, r1
 80034c0:	d103      	bne.n	80034ca <SPI_WaitFifoStateUntilTimeout.constprop.0+0x92>
 80034c2:	2140      	movs	r1, #64	@ 0x40
 80034c4:	681a      	ldr	r2, [r3, #0]
 80034c6:	438a      	bics	r2, r1
 80034c8:	601a      	str	r2, [r3, #0]
 80034ca:	2180      	movs	r1, #128	@ 0x80
 80034cc:	6aa2      	ldr	r2, [r4, #40]	@ 0x28
 80034ce:	0189      	lsls	r1, r1, #6
 80034d0:	428a      	cmp	r2, r1
 80034d2:	d106      	bne.n	80034e2 <SPI_WaitFifoStateUntilTimeout.constprop.0+0xaa>
 80034d4:	6819      	ldr	r1, [r3, #0]
 80034d6:	480d      	ldr	r0, [pc, #52]	@ (800350c <SPI_WaitFifoStateUntilTimeout.constprop.0+0xd4>)
 80034d8:	4001      	ands	r1, r0
 80034da:	6019      	str	r1, [r3, #0]
 80034dc:	6819      	ldr	r1, [r3, #0]
 80034de:	430a      	orrs	r2, r1
 80034e0:	601a      	str	r2, [r3, #0]
 80034e2:	0023      	movs	r3, r4
 80034e4:	2201      	movs	r2, #1
 80034e6:	335d      	adds	r3, #93	@ 0x5d
 80034e8:	701a      	strb	r2, [r3, #0]
 80034ea:	2300      	movs	r3, #0
 80034ec:	2003      	movs	r0, #3
 80034ee:	345c      	adds	r4, #92	@ 0x5c
 80034f0:	7023      	strb	r3, [r4, #0]
 80034f2:	b005      	add	sp, #20
 80034f4:	bdf0      	pop	{r4, r5, r6, r7, pc}
 80034f6:	9b03      	ldr	r3, [sp, #12]
 80034f8:	2b00      	cmp	r3, #0
 80034fa:	d000      	beq.n	80034fe <SPI_WaitFifoStateUntilTimeout.constprop.0+0xc6>
 80034fc:	002b      	movs	r3, r5
 80034fe:	9a03      	ldr	r2, [sp, #12]
 8003500:	001d      	movs	r5, r3
 8003502:	3a01      	subs	r2, #1
 8003504:	9203      	str	r2, [sp, #12]
 8003506:	e7b0      	b.n	800346a <SPI_WaitFifoStateUntilTimeout.constprop.0+0x32>
 8003508:	200000b8 	.word	0x200000b8
 800350c:	ffffdfff 	.word	0xffffdfff

08003510 <SPI_EndRxTxTransaction>:
 8003510:	b570      	push	{r4, r5, r6, lr}
 8003512:	0013      	movs	r3, r2
 8003514:	000d      	movs	r5, r1
 8003516:	0016      	movs	r6, r2
 8003518:	000a      	movs	r2, r1
 800351a:	21c0      	movs	r1, #192	@ 0xc0
 800351c:	0149      	lsls	r1, r1, #5
 800351e:	0004      	movs	r4, r0
 8003520:	f7ff ff8a 	bl	8003438 <SPI_WaitFifoStateUntilTimeout.constprop.0>
 8003524:	2800      	cmp	r0, #0
 8003526:	d005      	beq.n	8003534 <SPI_EndRxTxTransaction+0x24>
 8003528:	2320      	movs	r3, #32
 800352a:	2003      	movs	r0, #3
 800352c:	6e22      	ldr	r2, [r4, #96]	@ 0x60
 800352e:	4313      	orrs	r3, r2
 8003530:	6623      	str	r3, [r4, #96]	@ 0x60
 8003532:	bd70      	pop	{r4, r5, r6, pc}
 8003534:	0032      	movs	r2, r6
 8003536:	0029      	movs	r1, r5
 8003538:	0020      	movs	r0, r4
 800353a:	f7ff ff21 	bl	8003380 <SPI_WaitFlagStateUntilTimeout.constprop.0>
 800353e:	2800      	cmp	r0, #0
 8003540:	d1f2      	bne.n	8003528 <SPI_EndRxTxTransaction+0x18>
 8003542:	21c0      	movs	r1, #192	@ 0xc0
 8003544:	0033      	movs	r3, r6
 8003546:	002a      	movs	r2, r5
 8003548:	0020      	movs	r0, r4
 800354a:	00c9      	lsls	r1, r1, #3
 800354c:	f7ff ff74 	bl	8003438 <SPI_WaitFifoStateUntilTimeout.constprop.0>
 8003550:	2800      	cmp	r0, #0
 8003552:	d0ee      	beq.n	8003532 <SPI_EndRxTxTransaction+0x22>
 8003554:	e7e8      	b.n	8003528 <SPI_EndRxTxTransaction+0x18>
	...

08003558 <HAL_SPI_Init>:
 8003558:	b5f8      	push	{r3, r4, r5, r6, r7, lr}
 800355a:	0004      	movs	r4, r0
 800355c:	2001      	movs	r0, #1
 800355e:	2c00      	cmp	r4, #0
 8003560:	d067      	beq.n	8003632 <HAL_SPI_Init+0xda>
 8003562:	6a63      	ldr	r3, [r4, #36]	@ 0x24
 8003564:	2b00      	cmp	r3, #0
 8003566:	d165      	bne.n	8003634 <HAL_SPI_Init+0xdc>
 8003568:	2282      	movs	r2, #130	@ 0x82
 800356a:	6861      	ldr	r1, [r4, #4]
 800356c:	0052      	lsls	r2, r2, #1
 800356e:	4291      	cmp	r1, r2
 8003570:	d000      	beq.n	8003574 <HAL_SPI_Init+0x1c>
 8003572:	61e3      	str	r3, [r4, #28]
 8003574:	2300      	movs	r3, #0
 8003576:	0025      	movs	r5, r4
 8003578:	62a3      	str	r3, [r4, #40]	@ 0x28
 800357a:	355d      	adds	r5, #93	@ 0x5d
 800357c:	782b      	ldrb	r3, [r5, #0]
 800357e:	b2da      	uxtb	r2, r3
 8003580:	2b00      	cmp	r3, #0
 8003582:	d105      	bne.n	8003590 <HAL_SPI_Init+0x38>
 8003584:	0023      	movs	r3, r4
 8003586:	335c      	adds	r3, #92	@ 0x5c
 8003588:	0020      	movs	r0, r4
 800358a:	701a      	strb	r2, [r3, #0]
 800358c:	f7fe f9c2 	bl	8001914 <HAL_SPI_MspInit>
 8003590:	2302      	movs	r3, #2
 8003592:	2240      	movs	r2, #64	@ 0x40
 8003594:	702b      	strb	r3, [r5, #0]
 8003596:	6821      	ldr	r1, [r4, #0]
 8003598:	68e6      	ldr	r6, [r4, #12]
 800359a:	680b      	ldr	r3, [r1, #0]
 800359c:	4393      	bics	r3, r2
 800359e:	22e0      	movs	r2, #224	@ 0xe0
 80035a0:	600b      	str	r3, [r1, #0]
 80035a2:	00d2      	lsls	r2, r2, #3
 80035a4:	2300      	movs	r3, #0
 80035a6:	4296      	cmp	r6, r2
 80035a8:	d948      	bls.n	800363c <HAL_SPI_Init+0xe4>
 80035aa:	22f0      	movs	r2, #240	@ 0xf0
 80035ac:	0018      	movs	r0, r3
 80035ae:	0112      	lsls	r2, r2, #4
 80035b0:	4296      	cmp	r6, r2
 80035b2:	d000      	beq.n	80035b6 <HAL_SPI_Init+0x5e>
 80035b4:	62a3      	str	r3, [r4, #40]	@ 0x28
 80035b6:	2282      	movs	r2, #130	@ 0x82
 80035b8:	2784      	movs	r7, #132	@ 0x84
 80035ba:	6863      	ldr	r3, [r4, #4]
 80035bc:	0052      	lsls	r2, r2, #1
 80035be:	4013      	ands	r3, r2
 80035c0:	68a2      	ldr	r2, [r4, #8]
 80035c2:	023f      	lsls	r7, r7, #8
 80035c4:	403a      	ands	r2, r7
 80035c6:	2702      	movs	r7, #2
 80035c8:	4313      	orrs	r3, r2
 80035ca:	6922      	ldr	r2, [r4, #16]
 80035cc:	69a5      	ldr	r5, [r4, #24]
 80035ce:	403a      	ands	r2, r7
 80035d0:	4313      	orrs	r3, r2
 80035d2:	2201      	movs	r2, #1
 80035d4:	6967      	ldr	r7, [r4, #20]
 80035d6:	4017      	ands	r7, r2
 80035d8:	433b      	orrs	r3, r7
 80035da:	2780      	movs	r7, #128	@ 0x80
 80035dc:	00bf      	lsls	r7, r7, #2
 80035de:	402f      	ands	r7, r5
 80035e0:	433b      	orrs	r3, r7
 80035e2:	69e7      	ldr	r7, [r4, #28]
 80035e4:	3237      	adds	r2, #55	@ 0x37
 80035e6:	4017      	ands	r7, r2
 80035e8:	433b      	orrs	r3, r7
 80035ea:	6a27      	ldr	r7, [r4, #32]
 80035ec:	3248      	adds	r2, #72	@ 0x48
 80035ee:	4017      	ands	r7, r2
 80035f0:	2280      	movs	r2, #128	@ 0x80
 80035f2:	433b      	orrs	r3, r7
 80035f4:	6aa7      	ldr	r7, [r4, #40]	@ 0x28
 80035f6:	0192      	lsls	r2, r2, #6
 80035f8:	4017      	ands	r7, r2
 80035fa:	433b      	orrs	r3, r7
 80035fc:	2710      	movs	r7, #16
 80035fe:	2208      	movs	r2, #8
 8003600:	600b      	str	r3, [r1, #0]
 8003602:	6a63      	ldr	r3, [r4, #36]	@ 0x24
 8003604:	0c2d      	lsrs	r5, r5, #16
 8003606:	403b      	ands	r3, r7
 8003608:	6b67      	ldr	r7, [r4, #52]	@ 0x34
 800360a:	4017      	ands	r7, r2
 800360c:	433b      	orrs	r3, r7
 800360e:	27f0      	movs	r7, #240	@ 0xf0
 8003610:	013f      	lsls	r7, r7, #4
 8003612:	403e      	ands	r6, r7
 8003614:	4333      	orrs	r3, r6
 8003616:	2604      	movs	r6, #4
 8003618:	4035      	ands	r5, r6
 800361a:	432b      	orrs	r3, r5
 800361c:	4303      	orrs	r3, r0
 800361e:	604b      	str	r3, [r1, #4]
 8003620:	69cb      	ldr	r3, [r1, #28]
 8003622:	4808      	ldr	r0, [pc, #32]	@ (8003644 <HAL_SPI_Init+0xec>)
 8003624:	4003      	ands	r3, r0
 8003626:	2000      	movs	r0, #0
 8003628:	61cb      	str	r3, [r1, #28]
 800362a:	2301      	movs	r3, #1
 800362c:	6620      	str	r0, [r4, #96]	@ 0x60
 800362e:	345d      	adds	r4, #93	@ 0x5d
 8003630:	7023      	strb	r3, [r4, #0]
 8003632:	bdf8      	pop	{r3, r4, r5, r6, r7, pc}
 8003634:	2300      	movs	r3, #0
 8003636:	6123      	str	r3, [r4, #16]
 8003638:	6163      	str	r3, [r4, #20]
 800363a:	e79b      	b.n	8003574 <HAL_SPI_Init+0x1c>
 800363c:	2080      	movs	r0, #128	@ 0x80
 800363e:	0140      	lsls	r0, r0, #5
 8003640:	e7b6      	b.n	80035b0 <HAL_SPI_Init+0x58>
 8003642:	46c0      	nop			@ (mov r8, r8)
 8003644:	fffff7ff 	.word	0xfffff7ff

08003648 <HAL_SPI_Transmit>:
 8003648:	b5f0      	push	{r4, r5, r6, r7, lr}
 800364a:	001e      	movs	r6, r3
 800364c:	0003      	movs	r3, r0
 800364e:	b085      	sub	sp, #20
 8003650:	335c      	adds	r3, #92	@ 0x5c
 8003652:	9301      	str	r3, [sp, #4]
 8003654:	781b      	ldrb	r3, [r3, #0]
 8003656:	0004      	movs	r4, r0
 8003658:	000d      	movs	r5, r1
 800365a:	0017      	movs	r7, r2
 800365c:	2002      	movs	r0, #2
 800365e:	2b01      	cmp	r3, #1
 8003660:	d100      	bne.n	8003664 <HAL_SPI_Transmit+0x1c>
 8003662:	e07d      	b.n	8003760 <HAL_SPI_Transmit+0x118>
 8003664:	2301      	movs	r3, #1
 8003666:	9a01      	ldr	r2, [sp, #4]
 8003668:	7013      	strb	r3, [r2, #0]
 800366a:	f7fe fc4d 	bl	8001f08 <HAL_GetTick>
 800366e:	0023      	movs	r3, r4
 8003670:	9000      	str	r0, [sp, #0]
 8003672:	335d      	adds	r3, #93	@ 0x5d
 8003674:	781a      	ldrb	r2, [r3, #0]
 8003676:	b2d0      	uxtb	r0, r2
 8003678:	2a01      	cmp	r2, #1
 800367a:	d000      	beq.n	800367e <HAL_SPI_Transmit+0x36>
 800367c:	e09f      	b.n	80037be <HAL_SPI_Transmit+0x176>
 800367e:	2d00      	cmp	r5, #0
 8003680:	d068      	beq.n	8003754 <HAL_SPI_Transmit+0x10c>
 8003682:	2f00      	cmp	r7, #0
 8003684:	d066      	beq.n	8003754 <HAL_SPI_Transmit+0x10c>
 8003686:	3202      	adds	r2, #2
 8003688:	701a      	strb	r2, [r3, #0]
 800368a:	2300      	movs	r3, #0
 800368c:	1da2      	adds	r2, r4, #6
 800368e:	6623      	str	r3, [r4, #96]	@ 0x60
 8003690:	6423      	str	r3, [r4, #64]	@ 0x40
 8003692:	63a5      	str	r5, [r4, #56]	@ 0x38
 8003694:	87a7      	strh	r7, [r4, #60]	@ 0x3c
 8003696:	87e7      	strh	r7, [r4, #62]	@ 0x3e
 8003698:	3202      	adds	r2, #2
 800369a:	8793      	strh	r3, [r2, #60]	@ 0x3c
 800369c:	87d3      	strh	r3, [r2, #62]	@ 0x3e
 800369e:	6523      	str	r3, [r4, #80]	@ 0x50
 80036a0:	64e3      	str	r3, [r4, #76]	@ 0x4c
 80036a2:	2380      	movs	r3, #128	@ 0x80
 80036a4:	68a1      	ldr	r1, [r4, #8]
 80036a6:	6822      	ldr	r2, [r4, #0]
 80036a8:	021b      	lsls	r3, r3, #8
 80036aa:	4299      	cmp	r1, r3
 80036ac:	d108      	bne.n	80036c0 <HAL_SPI_Transmit+0x78>
 80036ae:	2140      	movs	r1, #64	@ 0x40
 80036b0:	6813      	ldr	r3, [r2, #0]
 80036b2:	438b      	bics	r3, r1
 80036b4:	6013      	str	r3, [r2, #0]
 80036b6:	2380      	movs	r3, #128	@ 0x80
 80036b8:	6811      	ldr	r1, [r2, #0]
 80036ba:	01db      	lsls	r3, r3, #7
 80036bc:	430b      	orrs	r3, r1
 80036be:	6013      	str	r3, [r2, #0]
 80036c0:	2340      	movs	r3, #64	@ 0x40
 80036c2:	6811      	ldr	r1, [r2, #0]
 80036c4:	4219      	tst	r1, r3
 80036c6:	d102      	bne.n	80036ce <HAL_SPI_Transmit+0x86>
 80036c8:	6811      	ldr	r1, [r2, #0]
 80036ca:	430b      	orrs	r3, r1
 80036cc:	6013      	str	r3, [r2, #0]
 80036ce:	21e0      	movs	r1, #224	@ 0xe0
 80036d0:	68e0      	ldr	r0, [r4, #12]
 80036d2:	6863      	ldr	r3, [r4, #4]
 80036d4:	00c9      	lsls	r1, r1, #3
 80036d6:	4288      	cmp	r0, r1
 80036d8:	d944      	bls.n	8003764 <HAL_SPI_Transmit+0x11c>
 80036da:	2b00      	cmp	r3, #0
 80036dc:	d001      	beq.n	80036e2 <HAL_SPI_Transmit+0x9a>
 80036de:	2f01      	cmp	r7, #1
 80036e0:	d107      	bne.n	80036f2 <HAL_SPI_Transmit+0xaa>
 80036e2:	882b      	ldrh	r3, [r5, #0]
 80036e4:	3502      	adds	r5, #2
 80036e6:	60d3      	str	r3, [r2, #12]
 80036e8:	8fe3      	ldrh	r3, [r4, #62]	@ 0x3e
 80036ea:	63a5      	str	r5, [r4, #56]	@ 0x38
 80036ec:	3b01      	subs	r3, #1
 80036ee:	b29b      	uxth	r3, r3
 80036f0:	87e3      	strh	r3, [r4, #62]	@ 0x3e
 80036f2:	2502      	movs	r5, #2
 80036f4:	e00c      	b.n	8003710 <HAL_SPI_Transmit+0xc8>
 80036f6:	6822      	ldr	r2, [r4, #0]
 80036f8:	6893      	ldr	r3, [r2, #8]
 80036fa:	422b      	tst	r3, r5
 80036fc:	d021      	beq.n	8003742 <HAL_SPI_Transmit+0xfa>
 80036fe:	6ba3      	ldr	r3, [r4, #56]	@ 0x38
 8003700:	8819      	ldrh	r1, [r3, #0]
 8003702:	3302      	adds	r3, #2
 8003704:	60d1      	str	r1, [r2, #12]
 8003706:	63a3      	str	r3, [r4, #56]	@ 0x38
 8003708:	8fe3      	ldrh	r3, [r4, #62]	@ 0x3e
 800370a:	3b01      	subs	r3, #1
 800370c:	b29b      	uxth	r3, r3
 800370e:	87e3      	strh	r3, [r4, #62]	@ 0x3e
 8003710:	8fe3      	ldrh	r3, [r4, #62]	@ 0x3e
 8003712:	2b00      	cmp	r3, #0
 8003714:	d1ef      	bne.n	80036f6 <HAL_SPI_Transmit+0xae>
 8003716:	0031      	movs	r1, r6
 8003718:	0020      	movs	r0, r4
 800371a:	9a00      	ldr	r2, [sp, #0]
 800371c:	f7ff fef8 	bl	8003510 <SPI_EndRxTxTransaction>
 8003720:	2800      	cmp	r0, #0
 8003722:	d149      	bne.n	80037b8 <HAL_SPI_Transmit+0x170>
 8003724:	68a3      	ldr	r3, [r4, #8]
 8003726:	2b00      	cmp	r3, #0
 8003728:	d106      	bne.n	8003738 <HAL_SPI_Transmit+0xf0>
 800372a:	9303      	str	r3, [sp, #12]
 800372c:	6823      	ldr	r3, [r4, #0]
 800372e:	68da      	ldr	r2, [r3, #12]
 8003730:	9203      	str	r2, [sp, #12]
 8003732:	689b      	ldr	r3, [r3, #8]
 8003734:	9303      	str	r3, [sp, #12]
 8003736:	9b03      	ldr	r3, [sp, #12]
 8003738:	6e20      	ldr	r0, [r4, #96]	@ 0x60
 800373a:	1e43      	subs	r3, r0, #1
 800373c:	4198      	sbcs	r0, r3
 800373e:	b2c0      	uxtb	r0, r0
 8003740:	e008      	b.n	8003754 <HAL_SPI_Transmit+0x10c>
 8003742:	f7fe fbe1 	bl	8001f08 <HAL_GetTick>
 8003746:	9b00      	ldr	r3, [sp, #0]
 8003748:	1ac0      	subs	r0, r0, r3
 800374a:	42b0      	cmp	r0, r6
 800374c:	d3e0      	bcc.n	8003710 <HAL_SPI_Transmit+0xc8>
 800374e:	1c73      	adds	r3, r6, #1
 8003750:	d0de      	beq.n	8003710 <HAL_SPI_Transmit+0xc8>
 8003752:	2003      	movs	r0, #3
 8003754:	2301      	movs	r3, #1
 8003756:	345d      	adds	r4, #93	@ 0x5d
 8003758:	7023      	strb	r3, [r4, #0]
 800375a:	2300      	movs	r3, #0
 800375c:	9a01      	ldr	r2, [sp, #4]
 800375e:	7013      	strb	r3, [r2, #0]
 8003760:	b005      	add	sp, #20
 8003762:	bdf0      	pop	{r4, r5, r6, r7, pc}
 8003764:	2b00      	cmp	r3, #0
 8003766:	d001      	beq.n	800376c <HAL_SPI_Transmit+0x124>
 8003768:	2f01      	cmp	r7, #1
 800376a:	d108      	bne.n	800377e <HAL_SPI_Transmit+0x136>
 800376c:	782b      	ldrb	r3, [r5, #0]
 800376e:	7313      	strb	r3, [r2, #12]
 8003770:	6ba3      	ldr	r3, [r4, #56]	@ 0x38
 8003772:	3301      	adds	r3, #1
 8003774:	63a3      	str	r3, [r4, #56]	@ 0x38
 8003776:	8fe3      	ldrh	r3, [r4, #62]	@ 0x3e
 8003778:	3b01      	subs	r3, #1
 800377a:	b29b      	uxth	r3, r3
 800377c:	87e3      	strh	r3, [r4, #62]	@ 0x3e
 800377e:	2502      	movs	r5, #2
 8003780:	e00d      	b.n	800379e <HAL_SPI_Transmit+0x156>
 8003782:	6823      	ldr	r3, [r4, #0]
 8003784:	689a      	ldr	r2, [r3, #8]
 8003786:	422a      	tst	r2, r5
 8003788:	d00d      	beq.n	80037a6 <HAL_SPI_Transmit+0x15e>
 800378a:	6ba2      	ldr	r2, [r4, #56]	@ 0x38
 800378c:	7812      	ldrb	r2, [r2, #0]
 800378e:	731a      	strb	r2, [r3, #12]
 8003790:	6ba3      	ldr	r3, [r4, #56]	@ 0x38
 8003792:	3301      	adds	r3, #1
 8003794:	63a3      	str	r3, [r4, #56]	@ 0x38
 8003796:	8fe3      	ldrh	r3, [r4, #62]	@ 0x3e
 8003798:	3b01      	subs	r3, #1
 800379a:	b29b      	uxth	r3, r3
 800379c:	87e3      	strh	r3, [r4, #62]	@ 0x3e
 800379e:	8fe3      	ldrh	r3, [r4, #62]	@ 0x3e
 80037a0:	2b00      	cmp	r3, #0
 80037a2:	d1ee      	bne.n	8003782 <HAL_SPI_Transmit+0x13a>
 80037a4:	e7b7      	b.n	8003716 <HAL_SPI_Transmit+0xce>
 80037a6:	f7fe fbaf 	bl	8001f08 <HAL_GetTick>
 80037aa:	9b00      	ldr	r3, [sp, #0]
 80037ac:	1ac0      	subs	r0, r0, r3
 80037ae:	42b0      	cmp	r0, r6
 80037b0:	d3f5      	bcc.n	800379e <HAL_SPI_Transmit+0x156>
 80037b2:	1c73      	adds	r3, r6, #1
 80037b4:	d0f3      	beq.n	800379e <HAL_SPI_Transmit+0x156>
 80037b6:	e7cc      	b.n	8003752 <HAL_SPI_Transmit+0x10a>
 80037b8:	2320      	movs	r3, #32
 80037ba:	6623      	str	r3, [r4, #96]	@ 0x60
 80037bc:	e7b2      	b.n	8003724 <HAL_SPI_Transmit+0xdc>
 80037be:	2002      	movs	r0, #2
 80037c0:	e7c8      	b.n	8003754 <HAL_SPI_Transmit+0x10c>
	...

080037c4 <HAL_TIM_Base_Start_IT>:
 80037c4:	0001      	movs	r1, r0
 80037c6:	0003      	movs	r3, r0
 80037c8:	2001      	movs	r0, #1
 80037ca:	b510      	push	{r4, lr}
 80037cc:	313d      	adds	r1, #61	@ 0x3d
 80037ce:	780c      	ldrb	r4, [r1, #0]
 80037d0:	b2e2      	uxtb	r2, r4
 80037d2:	4284      	cmp	r4, r0
 80037d4:	d11c      	bne.n	8003810 <HAL_TIM_Base_Start_IT+0x4c>
 80037d6:	1800      	adds	r0, r0, r0
 80037d8:	7008      	strb	r0, [r1, #0]
 80037da:	681b      	ldr	r3, [r3, #0]
 80037dc:	68d9      	ldr	r1, [r3, #12]
 80037de:	4311      	orrs	r1, r2
 80037e0:	60d9      	str	r1, [r3, #12]
 80037e2:	490d      	ldr	r1, [pc, #52]	@ (8003818 <HAL_TIM_Base_Start_IT+0x54>)
 80037e4:	428b      	cmp	r3, r1
 80037e6:	d009      	beq.n	80037fc <HAL_TIM_Base_Start_IT+0x38>
 80037e8:	2180      	movs	r1, #128	@ 0x80
 80037ea:	05c9      	lsls	r1, r1, #23
 80037ec:	428b      	cmp	r3, r1
 80037ee:	d005      	beq.n	80037fc <HAL_TIM_Base_Start_IT+0x38>
 80037f0:	490a      	ldr	r1, [pc, #40]	@ (800381c <HAL_TIM_Base_Start_IT+0x58>)
 80037f2:	428b      	cmp	r3, r1
 80037f4:	d002      	beq.n	80037fc <HAL_TIM_Base_Start_IT+0x38>
 80037f6:	490a      	ldr	r1, [pc, #40]	@ (8003820 <HAL_TIM_Base_Start_IT+0x5c>)
 80037f8:	428b      	cmp	r3, r1
 80037fa:	d10a      	bne.n	8003812 <HAL_TIM_Base_Start_IT+0x4e>
 80037fc:	2107      	movs	r1, #7
 80037fe:	689a      	ldr	r2, [r3, #8]
 8003800:	400a      	ands	r2, r1
 8003802:	2a06      	cmp	r2, #6
 8003804:	d003      	beq.n	800380e <HAL_TIM_Base_Start_IT+0x4a>
 8003806:	2201      	movs	r2, #1
 8003808:	6819      	ldr	r1, [r3, #0]
 800380a:	430a      	orrs	r2, r1
 800380c:	601a      	str	r2, [r3, #0]
 800380e:	2000      	movs	r0, #0
 8003810:	bd10      	pop	{r4, pc}
 8003812:	6819      	ldr	r1, [r3, #0]
 8003814:	e7f9      	b.n	800380a <HAL_TIM_Base_Start_IT+0x46>
 8003816:	46c0      	nop			@ (mov r8, r8)
 8003818:	40012c00 	.word	0x40012c00
 800381c:	40000400 	.word	0x40000400
 8003820:	40014000 	.word	0x40014000

08003824 <HAL_TIM_Base_Stop_IT>:
 8003824:	2101      	movs	r1, #1
 8003826:	6803      	ldr	r3, [r0, #0]
 8003828:	b510      	push	{r4, lr}
 800382a:	68da      	ldr	r2, [r3, #12]
 800382c:	438a      	bics	r2, r1
 800382e:	60da      	str	r2, [r3, #12]
 8003830:	6a1c      	ldr	r4, [r3, #32]
 8003832:	4a07      	ldr	r2, [pc, #28]	@ (8003850 <HAL_TIM_Base_Stop_IT+0x2c>)
 8003834:	4214      	tst	r4, r2
 8003836:	d106      	bne.n	8003846 <HAL_TIM_Base_Stop_IT+0x22>
 8003838:	6a1c      	ldr	r4, [r3, #32]
 800383a:	4a06      	ldr	r2, [pc, #24]	@ (8003854 <HAL_TIM_Base_Stop_IT+0x30>)
 800383c:	4214      	tst	r4, r2
 800383e:	d102      	bne.n	8003846 <HAL_TIM_Base_Stop_IT+0x22>
 8003840:	681a      	ldr	r2, [r3, #0]
 8003842:	438a      	bics	r2, r1
 8003844:	601a      	str	r2, [r3, #0]
 8003846:	2301      	movs	r3, #1
 8003848:	303d      	adds	r0, #61	@ 0x3d
 800384a:	7003      	strb	r3, [r0, #0]
 800384c:	2000      	movs	r0, #0
 800384e:	bd10      	pop	{r4, pc}
 8003850:	00001111 	.word	0x00001111
 8003854:	00000444 	.word	0x00000444

08003858 <HAL_TIM_Encoder_Start>:
 8003858:	b5f7      	push	{r0, r1, r2, r4, r5, r6, r7, lr}
 800385a:	223e      	movs	r2, #62	@ 0x3e
 800385c:	0003      	movs	r3, r0
 800385e:	4694      	mov	ip, r2
 8003860:	001f      	movs	r7, r3
 8003862:	4484      	add	ip, r0
 8003864:	4662      	mov	r2, ip
 8003866:	001e      	movs	r6, r3
 8003868:	001d      	movs	r5, r3
 800386a:	373f      	adds	r7, #63	@ 0x3f
 800386c:	7810      	ldrb	r0, [r2, #0]
 800386e:	783a      	ldrb	r2, [r7, #0]
 8003870:	3642      	adds	r6, #66	@ 0x42
 8003872:	b2d2      	uxtb	r2, r2
 8003874:	9201      	str	r2, [sp, #4]
 8003876:	3543      	adds	r5, #67	@ 0x43
 8003878:	7834      	ldrb	r4, [r6, #0]
 800387a:	782a      	ldrb	r2, [r5, #0]
 800387c:	b2c0      	uxtb	r0, r0
 800387e:	b2e4      	uxtb	r4, r4
 8003880:	b2d2      	uxtb	r2, r2
 8003882:	2900      	cmp	r1, #0
 8003884:	d115      	bne.n	80038b2 <HAL_TIM_Encoder_Start+0x5a>
 8003886:	2801      	cmp	r0, #1
 8003888:	d144      	bne.n	8003914 <HAL_TIM_Encoder_Start+0xbc>
 800388a:	2c01      	cmp	r4, #1
 800388c:	d110      	bne.n	80038b0 <HAL_TIM_Encoder_Start+0x58>
 800388e:	2202      	movs	r2, #2
 8003890:	4661      	mov	r1, ip
 8003892:	700a      	strb	r2, [r1, #0]
 8003894:	7032      	strb	r2, [r6, #0]
 8003896:	681a      	ldr	r2, [r3, #0]
 8003898:	6a11      	ldr	r1, [r2, #32]
 800389a:	43a1      	bics	r1, r4
 800389c:	6211      	str	r1, [r2, #32]
 800389e:	6a11      	ldr	r1, [r2, #32]
 80038a0:	4321      	orrs	r1, r4
 80038a2:	6211      	str	r1, [r2, #32]
 80038a4:	681a      	ldr	r2, [r3, #0]
 80038a6:	2301      	movs	r3, #1
 80038a8:	2000      	movs	r0, #0
 80038aa:	6811      	ldr	r1, [r2, #0]
 80038ac:	430b      	orrs	r3, r1
 80038ae:	6013      	str	r3, [r2, #0]
 80038b0:	bdfe      	pop	{r1, r2, r3, r4, r5, r6, r7, pc}
 80038b2:	2904      	cmp	r1, #4
 80038b4:	d110      	bne.n	80038d8 <HAL_TIM_Encoder_Start+0x80>
 80038b6:	2001      	movs	r0, #1
 80038b8:	9901      	ldr	r1, [sp, #4]
 80038ba:	4281      	cmp	r1, r0
 80038bc:	d1f8      	bne.n	80038b0 <HAL_TIM_Encoder_Start+0x58>
 80038be:	4282      	cmp	r2, r0
 80038c0:	d1f6      	bne.n	80038b0 <HAL_TIM_Encoder_Start+0x58>
 80038c2:	2202      	movs	r2, #2
 80038c4:	2110      	movs	r1, #16
 80038c6:	703a      	strb	r2, [r7, #0]
 80038c8:	702a      	strb	r2, [r5, #0]
 80038ca:	681a      	ldr	r2, [r3, #0]
 80038cc:	6a10      	ldr	r0, [r2, #32]
 80038ce:	4388      	bics	r0, r1
 80038d0:	6210      	str	r0, [r2, #32]
 80038d2:	6a10      	ldr	r0, [r2, #32]
 80038d4:	4301      	orrs	r1, r0
 80038d6:	e7e4      	b.n	80038a2 <HAL_TIM_Encoder_Start+0x4a>
 80038d8:	2801      	cmp	r0, #1
 80038da:	d11b      	bne.n	8003914 <HAL_TIM_Encoder_Start+0xbc>
 80038dc:	9901      	ldr	r1, [sp, #4]
 80038de:	2901      	cmp	r1, #1
 80038e0:	d1e6      	bne.n	80038b0 <HAL_TIM_Encoder_Start+0x58>
 80038e2:	2c01      	cmp	r4, #1
 80038e4:	d1e4      	bne.n	80038b0 <HAL_TIM_Encoder_Start+0x58>
 80038e6:	2a01      	cmp	r2, #1
 80038e8:	d1e2      	bne.n	80038b0 <HAL_TIM_Encoder_Start+0x58>
 80038ea:	4660      	mov	r0, ip
 80038ec:	3101      	adds	r1, #1
 80038ee:	7001      	strb	r1, [r0, #0]
 80038f0:	7039      	strb	r1, [r7, #0]
 80038f2:	7031      	strb	r1, [r6, #0]
 80038f4:	7029      	strb	r1, [r5, #0]
 80038f6:	6819      	ldr	r1, [r3, #0]
 80038f8:	6a08      	ldr	r0, [r1, #32]
 80038fa:	4390      	bics	r0, r2
 80038fc:	6208      	str	r0, [r1, #32]
 80038fe:	6a08      	ldr	r0, [r1, #32]
 8003900:	4302      	orrs	r2, r0
 8003902:	620a      	str	r2, [r1, #32]
 8003904:	2210      	movs	r2, #16
 8003906:	6a08      	ldr	r0, [r1, #32]
 8003908:	4390      	bics	r0, r2
 800390a:	6208      	str	r0, [r1, #32]
 800390c:	6a08      	ldr	r0, [r1, #32]
 800390e:	4302      	orrs	r2, r0
 8003910:	620a      	str	r2, [r1, #32]
 8003912:	e7c7      	b.n	80038a4 <HAL_TIM_Encoder_Start+0x4c>
 8003914:	2001      	movs	r0, #1
 8003916:	e7cb      	b.n	80038b0 <HAL_TIM_Encoder_Start+0x58>

08003918 <HAL_TIM_OC_DelayElapsedCallback>:
 8003918:	4770      	bx	lr

0800391a <HAL_TIM_IC_CaptureCallback>:
 800391a:	4770      	bx	lr

0800391c <HAL_TIM_PWM_PulseFinishedCallback>:
 800391c:	4770      	bx	lr

0800391e <HAL_TIM_TriggerCallback>:
 800391e:	4770      	bx	lr

08003920 <HAL_TIM_IRQHandler>:
 8003920:	2202      	movs	r2, #2
 8003922:	6803      	ldr	r3, [r0, #0]
 8003924:	b510      	push	{r4, lr}
 8003926:	6919      	ldr	r1, [r3, #16]
 8003928:	0004      	movs	r4, r0
 800392a:	4211      	tst	r1, r2
 800392c:	d00e      	beq.n	800394c <HAL_TIM_IRQHandler+0x2c>
 800392e:	68d9      	ldr	r1, [r3, #12]
 8003930:	4211      	tst	r1, r2
 8003932:	d00b      	beq.n	800394c <HAL_TIM_IRQHandler+0x2c>
 8003934:	3a05      	subs	r2, #5
 8003936:	611a      	str	r2, [r3, #16]
 8003938:	3204      	adds	r2, #4
 800393a:	7702      	strb	r2, [r0, #28]
 800393c:	699b      	ldr	r3, [r3, #24]
 800393e:	079b      	lsls	r3, r3, #30
 8003940:	d100      	bne.n	8003944 <HAL_TIM_IRQHandler+0x24>
 8003942:	e079      	b.n	8003a38 <HAL_TIM_IRQHandler+0x118>
 8003944:	f7ff ffe9 	bl	800391a <HAL_TIM_IC_CaptureCallback>
 8003948:	2300      	movs	r3, #0
 800394a:	7723      	strb	r3, [r4, #28]
 800394c:	2204      	movs	r2, #4
 800394e:	6823      	ldr	r3, [r4, #0]
 8003950:	6919      	ldr	r1, [r3, #16]
 8003952:	4211      	tst	r1, r2
 8003954:	d010      	beq.n	8003978 <HAL_TIM_IRQHandler+0x58>
 8003956:	68d9      	ldr	r1, [r3, #12]
 8003958:	4211      	tst	r1, r2
 800395a:	d00d      	beq.n	8003978 <HAL_TIM_IRQHandler+0x58>
 800395c:	3a09      	subs	r2, #9
 800395e:	611a      	str	r2, [r3, #16]
 8003960:	3207      	adds	r2, #7
 8003962:	7722      	strb	r2, [r4, #28]
 8003964:	699a      	ldr	r2, [r3, #24]
 8003966:	23c0      	movs	r3, #192	@ 0xc0
 8003968:	009b      	lsls	r3, r3, #2
 800396a:	0020      	movs	r0, r4
 800396c:	421a      	tst	r2, r3
 800396e:	d069      	beq.n	8003a44 <HAL_TIM_IRQHandler+0x124>
 8003970:	f7ff ffd3 	bl	800391a <HAL_TIM_IC_CaptureCallback>
 8003974:	2300      	movs	r3, #0
 8003976:	7723      	strb	r3, [r4, #28]
 8003978:	2208      	movs	r2, #8
 800397a:	6823      	ldr	r3, [r4, #0]
 800397c:	6919      	ldr	r1, [r3, #16]
 800397e:	4211      	tst	r1, r2
 8003980:	d00e      	beq.n	80039a0 <HAL_TIM_IRQHandler+0x80>
 8003982:	68d9      	ldr	r1, [r3, #12]
 8003984:	4211      	tst	r1, r2
 8003986:	d00b      	beq.n	80039a0 <HAL_TIM_IRQHandler+0x80>
 8003988:	3a11      	subs	r2, #17
 800398a:	611a      	str	r2, [r3, #16]
 800398c:	320d      	adds	r2, #13
 800398e:	7722      	strb	r2, [r4, #28]
 8003990:	69db      	ldr	r3, [r3, #28]
 8003992:	0020      	movs	r0, r4
 8003994:	079b      	lsls	r3, r3, #30
 8003996:	d05b      	beq.n	8003a50 <HAL_TIM_IRQHandler+0x130>
 8003998:	f7ff ffbf 	bl	800391a <HAL_TIM_IC_CaptureCallback>
 800399c:	2300      	movs	r3, #0
 800399e:	7723      	strb	r3, [r4, #28]
 80039a0:	2210      	movs	r2, #16
 80039a2:	6823      	ldr	r3, [r4, #0]
 80039a4:	6919      	ldr	r1, [r3, #16]
 80039a6:	4211      	tst	r1, r2
 80039a8:	d010      	beq.n	80039cc <HAL_TIM_IRQHandler+0xac>
 80039aa:	68d9      	ldr	r1, [r3, #12]
 80039ac:	4211      	tst	r1, r2
 80039ae:	d00d      	beq.n	80039cc <HAL_TIM_IRQHandler+0xac>
 80039b0:	3a21      	subs	r2, #33	@ 0x21
 80039b2:	611a      	str	r2, [r3, #16]
 80039b4:	3219      	adds	r2, #25
 80039b6:	7722      	strb	r2, [r4, #28]
 80039b8:	69da      	ldr	r2, [r3, #28]
 80039ba:	23c0      	movs	r3, #192	@ 0xc0
 80039bc:	009b      	lsls	r3, r3, #2
 80039be:	0020      	movs	r0, r4
 80039c0:	421a      	tst	r2, r3
 80039c2:	d04b      	beq.n	8003a5c <HAL_TIM_IRQHandler+0x13c>
 80039c4:	f7ff ffa9 	bl	800391a <HAL_TIM_IC_CaptureCallback>
 80039c8:	2300      	movs	r3, #0
 80039ca:	7723      	strb	r3, [r4, #28]
 80039cc:	2201      	movs	r2, #1
 80039ce:	6823      	ldr	r3, [r4, #0]
 80039d0:	6919      	ldr	r1, [r3, #16]
 80039d2:	4211      	tst	r1, r2
 80039d4:	d007      	beq.n	80039e6 <HAL_TIM_IRQHandler+0xc6>
 80039d6:	68d9      	ldr	r1, [r3, #12]
 80039d8:	4211      	tst	r1, r2
 80039da:	d004      	beq.n	80039e6 <HAL_TIM_IRQHandler+0xc6>
 80039dc:	3a03      	subs	r2, #3
 80039de:	0020      	movs	r0, r4
 80039e0:	611a      	str	r2, [r3, #16]
 80039e2:	f7fe f893 	bl	8001b0c <HAL_TIM_PeriodElapsedCallback>
 80039e6:	2280      	movs	r2, #128	@ 0x80
 80039e8:	6823      	ldr	r3, [r4, #0]
 80039ea:	6919      	ldr	r1, [r3, #16]
 80039ec:	4211      	tst	r1, r2
 80039ee:	d008      	beq.n	8003a02 <HAL_TIM_IRQHandler+0xe2>
 80039f0:	68d9      	ldr	r1, [r3, #12]
 80039f2:	4211      	tst	r1, r2
 80039f4:	d005      	beq.n	8003a02 <HAL_TIM_IRQHandler+0xe2>
 80039f6:	3a02      	subs	r2, #2
 80039f8:	3aff      	subs	r2, #255	@ 0xff
 80039fa:	0020      	movs	r0, r4
 80039fc:	611a      	str	r2, [r3, #16]
 80039fe:	f000 f934 	bl	8003c6a <HAL_TIMEx_BreakCallback>
 8003a02:	2240      	movs	r2, #64	@ 0x40
 8003a04:	6823      	ldr	r3, [r4, #0]
 8003a06:	6919      	ldr	r1, [r3, #16]
 8003a08:	4211      	tst	r1, r2
 8003a0a:	d007      	beq.n	8003a1c <HAL_TIM_IRQHandler+0xfc>
 8003a0c:	68d9      	ldr	r1, [r3, #12]
 8003a0e:	4211      	tst	r1, r2
 8003a10:	d004      	beq.n	8003a1c <HAL_TIM_IRQHandler+0xfc>
 8003a12:	3a81      	subs	r2, #129	@ 0x81
 8003a14:	0020      	movs	r0, r4
 8003a16:	611a      	str	r2, [r3, #16]
 8003a18:	f7ff ff81 	bl	800391e <HAL_TIM_TriggerCallback>
 8003a1c:	2220      	movs	r2, #32
 8003a1e:	6823      	ldr	r3, [r4, #0]
 8003a20:	6919      	ldr	r1, [r3, #16]
 8003a22:	4211      	tst	r1, r2
 8003a24:	d007      	beq.n	8003a36 <HAL_TIM_IRQHandler+0x116>
 8003a26:	68d9      	ldr	r1, [r3, #12]
 8003a28:	4211      	tst	r1, r2
 8003a2a:	d004      	beq.n	8003a36 <HAL_TIM_IRQHandler+0x116>
 8003a2c:	3a41      	subs	r2, #65	@ 0x41
 8003a2e:	0020      	movs	r0, r4
 8003a30:	611a      	str	r2, [r3, #16]
 8003a32:	f000 f919 	bl	8003c68 <HAL_TIMEx_CommutCallback>
 8003a36:	bd10      	pop	{r4, pc}
 8003a38:	f7ff ff6e 	bl	8003918 <HAL_TIM_OC_DelayElapsedCallback>
 8003a3c:	0020      	movs	r0, r4
 8003a3e:	f7ff ff6d 	bl	800391c <HAL_TIM_PWM_PulseFinishedCallback>
 8003a42:	e781      	b.n	8003948 <HAL_TIM_IRQHandler+0x28>
 8003a44:	f7ff ff68 	bl	8003918 <HAL_TIM_OC_DelayElapsedCallback>
 8003a48:	0020      	movs	r0, r4
 8003a4a:	f7ff ff67 	bl	800391c <HAL_TIM_PWM_PulseFinishedCallback>
 8003a4e:	e791      	b.n	8003974 <HAL_TIM_IRQHandler+0x54>
 8003a50:	f7ff ff62 	bl	8003918 <HAL_TIM_OC_DelayElapsedCallback>
 8003a54:	0020      	movs	r0, r4
 8003a56:	f7ff ff61 	bl	800391c <HAL_TIM_PWM_PulseFinishedCallback>
 8003a5a:	e79f      	b.n	800399c <HAL_TIM_IRQHandler+0x7c>
 8003a5c:	f7ff ff5c 	bl	8003918 <HAL_TIM_OC_DelayElapsedCallback>
 8003a60:	0020      	movs	r0, r4
 8003a62:	f7ff ff5b 	bl	800391c <HAL_TIM_PWM_PulseFinishedCallback>
 8003a66:	e7af      	b.n	80039c8 <HAL_TIM_IRQHandler+0xa8>

08003a68 <TIM_Base_SetConfig>:
 8003a68:	4a20      	ldr	r2, [pc, #128]	@ (8003aec <TIM_Base_SetConfig+0x84>)
 8003a6a:	b510      	push	{r4, lr}
 8003a6c:	6803      	ldr	r3, [r0, #0]
 8003a6e:	4290      	cmp	r0, r2
 8003a70:	d006      	beq.n	8003a80 <TIM_Base_SetConfig+0x18>
 8003a72:	2480      	movs	r4, #128	@ 0x80
 8003a74:	05e4      	lsls	r4, r4, #23
 8003a76:	42a0      	cmp	r0, r4
 8003a78:	d002      	beq.n	8003a80 <TIM_Base_SetConfig+0x18>
 8003a7a:	4c1d      	ldr	r4, [pc, #116]	@ (8003af0 <TIM_Base_SetConfig+0x88>)
 8003a7c:	42a0      	cmp	r0, r4
 8003a7e:	d10c      	bne.n	8003a9a <TIM_Base_SetConfig+0x32>
 8003a80:	2470      	movs	r4, #112	@ 0x70
 8003a82:	43a3      	bics	r3, r4
 8003a84:	684c      	ldr	r4, [r1, #4]
 8003a86:	4323      	orrs	r3, r4
 8003a88:	4290      	cmp	r0, r2
 8003a8a:	d012      	beq.n	8003ab2 <TIM_Base_SetConfig+0x4a>
 8003a8c:	2480      	movs	r4, #128	@ 0x80
 8003a8e:	05e4      	lsls	r4, r4, #23
 8003a90:	42a0      	cmp	r0, r4
 8003a92:	d00e      	beq.n	8003ab2 <TIM_Base_SetConfig+0x4a>
 8003a94:	4c16      	ldr	r4, [pc, #88]	@ (8003af0 <TIM_Base_SetConfig+0x88>)
 8003a96:	42a0      	cmp	r0, r4
 8003a98:	d00b      	beq.n	8003ab2 <TIM_Base_SetConfig+0x4a>
 8003a9a:	4c16      	ldr	r4, [pc, #88]	@ (8003af4 <TIM_Base_SetConfig+0x8c>)
 8003a9c:	42a0      	cmp	r0, r4
 8003a9e:	d008      	beq.n	8003ab2 <TIM_Base_SetConfig+0x4a>
 8003aa0:	4c15      	ldr	r4, [pc, #84]	@ (8003af8 <TIM_Base_SetConfig+0x90>)
 8003aa2:	42a0      	cmp	r0, r4
 8003aa4:	d005      	beq.n	8003ab2 <TIM_Base_SetConfig+0x4a>
 8003aa6:	4c15      	ldr	r4, [pc, #84]	@ (8003afc <TIM_Base_SetConfig+0x94>)
 8003aa8:	42a0      	cmp	r0, r4
 8003aaa:	d002      	beq.n	8003ab2 <TIM_Base_SetConfig+0x4a>
 8003aac:	4c14      	ldr	r4, [pc, #80]	@ (8003b00 <TIM_Base_SetConfig+0x98>)
 8003aae:	42a0      	cmp	r0, r4
 8003ab0:	d103      	bne.n	8003aba <TIM_Base_SetConfig+0x52>
 8003ab2:	4c14      	ldr	r4, [pc, #80]	@ (8003b04 <TIM_Base_SetConfig+0x9c>)
 8003ab4:	401c      	ands	r4, r3
 8003ab6:	68cb      	ldr	r3, [r1, #12]
 8003ab8:	4323      	orrs	r3, r4
 8003aba:	2480      	movs	r4, #128	@ 0x80
 8003abc:	43a3      	bics	r3, r4
 8003abe:	694c      	ldr	r4, [r1, #20]
 8003ac0:	4323      	orrs	r3, r4
 8003ac2:	6003      	str	r3, [r0, #0]
 8003ac4:	688b      	ldr	r3, [r1, #8]
 8003ac6:	62c3      	str	r3, [r0, #44]	@ 0x2c
 8003ac8:	680b      	ldr	r3, [r1, #0]
 8003aca:	6283      	str	r3, [r0, #40]	@ 0x28
 8003acc:	4290      	cmp	r0, r2
 8003ace:	d008      	beq.n	8003ae2 <TIM_Base_SetConfig+0x7a>
 8003ad0:	4b09      	ldr	r3, [pc, #36]	@ (8003af8 <TIM_Base_SetConfig+0x90>)
 8003ad2:	4298      	cmp	r0, r3
 8003ad4:	d005      	beq.n	8003ae2 <TIM_Base_SetConfig+0x7a>
 8003ad6:	4b09      	ldr	r3, [pc, #36]	@ (8003afc <TIM_Base_SetConfig+0x94>)
 8003ad8:	4298      	cmp	r0, r3
 8003ada:	d002      	beq.n	8003ae2 <TIM_Base_SetConfig+0x7a>
 8003adc:	4b08      	ldr	r3, [pc, #32]	@ (8003b00 <TIM_Base_SetConfig+0x98>)
 8003ade:	4298      	cmp	r0, r3
 8003ae0:	d101      	bne.n	8003ae6 <TIM_Base_SetConfig+0x7e>
 8003ae2:	690b      	ldr	r3, [r1, #16]
 8003ae4:	6303      	str	r3, [r0, #48]	@ 0x30
 8003ae6:	2301      	movs	r3, #1
 8003ae8:	6143      	str	r3, [r0, #20]
 8003aea:	bd10      	pop	{r4, pc}
 8003aec:	40012c00 	.word	0x40012c00
 8003af0:	40000400 	.word	0x40000400
 8003af4:	40002000 	.word	0x40002000
 8003af8:	40014000 	.word	0x40014000
 8003afc:	40014400 	.word	0x40014400
 8003b00:	40014800 	.word	0x40014800
 8003b04:	fffffcff 	.word	0xfffffcff

08003b08 <HAL_TIM_Base_Init>:
 8003b08:	b570      	push	{r4, r5, r6, lr}
 8003b0a:	0004      	movs	r4, r0
 8003b0c:	2001      	movs	r0, #1
 8003b0e:	2c00      	cmp	r4, #0
 8003b10:	d021      	beq.n	8003b56 <HAL_TIM_Base_Init+0x4e>
 8003b12:	0025      	movs	r5, r4
 8003b14:	353d      	adds	r5, #61	@ 0x3d
 8003b16:	782b      	ldrb	r3, [r5, #0]
 8003b18:	b2da      	uxtb	r2, r3
 8003b1a:	2b00      	cmp	r3, #0
 8003b1c:	d105      	bne.n	8003b2a <HAL_TIM_Base_Init+0x22>
 8003b1e:	0023      	movs	r3, r4
 8003b20:	333c      	adds	r3, #60	@ 0x3c
 8003b22:	0020      	movs	r0, r4
 8003b24:	701a      	strb	r2, [r3, #0]
 8003b26:	f7fd ff69 	bl	80019fc <HAL_TIM_Base_MspInit>
 8003b2a:	2302      	movs	r3, #2
 8003b2c:	702b      	strb	r3, [r5, #0]
 8003b2e:	6820      	ldr	r0, [r4, #0]
 8003b30:	1d21      	adds	r1, r4, #4
 8003b32:	f7ff ff99 	bl	8003a68 <TIM_Base_SetConfig>
 8003b36:	0022      	movs	r2, r4
 8003b38:	2301      	movs	r3, #1
 8003b3a:	2000      	movs	r0, #0
 8003b3c:	3246      	adds	r2, #70	@ 0x46
 8003b3e:	7013      	strb	r3, [r2, #0]
 8003b40:	3445      	adds	r4, #69	@ 0x45
 8003b42:	3a08      	subs	r2, #8
 8003b44:	7013      	strb	r3, [r2, #0]
 8003b46:	7053      	strb	r3, [r2, #1]
 8003b48:	7093      	strb	r3, [r2, #2]
 8003b4a:	70d3      	strb	r3, [r2, #3]
 8003b4c:	7113      	strb	r3, [r2, #4]
 8003b4e:	7153      	strb	r3, [r2, #5]
 8003b50:	7193      	strb	r3, [r2, #6]
 8003b52:	7023      	strb	r3, [r4, #0]
 8003b54:	702b      	strb	r3, [r5, #0]
 8003b56:	bd70      	pop	{r4, r5, r6, pc}

08003b58 <HAL_TIM_Encoder_Init>:
 8003b58:	b5f7      	push	{r0, r1, r2, r4, r5, r6, r7, lr}
 8003b5a:	0004      	movs	r4, r0
 8003b5c:	000d      	movs	r5, r1
 8003b5e:	2001      	movs	r0, #1
 8003b60:	2c00      	cmp	r4, #0
 8003b62:	d047      	beq.n	8003bf4 <HAL_TIM_Encoder_Init+0x9c>
 8003b64:	0026      	movs	r6, r4
 8003b66:	363d      	adds	r6, #61	@ 0x3d
 8003b68:	7833      	ldrb	r3, [r6, #0]
 8003b6a:	b2da      	uxtb	r2, r3
 8003b6c:	2b00      	cmp	r3, #0
 8003b6e:	d105      	bne.n	8003b7c <HAL_TIM_Encoder_Init+0x24>
 8003b70:	0023      	movs	r3, r4
 8003b72:	333c      	adds	r3, #60	@ 0x3c
 8003b74:	0020      	movs	r0, r4
 8003b76:	701a      	strb	r2, [r3, #0]
 8003b78:	f7fd fefc 	bl	8001974 <HAL_TIM_Encoder_MspInit>
 8003b7c:	2302      	movs	r3, #2
 8003b7e:	0021      	movs	r1, r4
 8003b80:	7033      	strb	r3, [r6, #0]
 8003b82:	c980      	ldmia	r1!, {r7}
 8003b84:	4a1c      	ldr	r2, [pc, #112]	@ (8003bf8 <HAL_TIM_Encoder_Init+0xa0>)
 8003b86:	68bb      	ldr	r3, [r7, #8]
 8003b88:	0038      	movs	r0, r7
 8003b8a:	4013      	ands	r3, r2
 8003b8c:	60bb      	str	r3, [r7, #8]
 8003b8e:	f7ff ff6b 	bl	8003a68 <TIM_Base_SetConfig>
 8003b92:	68b9      	ldr	r1, [r7, #8]
 8003b94:	682a      	ldr	r2, [r5, #0]
 8003b96:	69bb      	ldr	r3, [r7, #24]
 8003b98:	4311      	orrs	r1, r2
 8003b9a:	4a18      	ldr	r2, [pc, #96]	@ (8003bfc <HAL_TIM_Encoder_Init+0xa4>)
 8003b9c:	9101      	str	r1, [sp, #4]
 8003b9e:	4013      	ands	r3, r2
 8003ba0:	69aa      	ldr	r2, [r5, #24]
 8003ba2:	68a9      	ldr	r1, [r5, #8]
 8003ba4:	0212      	lsls	r2, r2, #8
 8003ba6:	430a      	orrs	r2, r1
 8003ba8:	431a      	orrs	r2, r3
 8003baa:	4b15      	ldr	r3, [pc, #84]	@ (8003c00 <HAL_TIM_Encoder_Init+0xa8>)
 8003bac:	6929      	ldr	r1, [r5, #16]
 8003bae:	401a      	ands	r2, r3
 8003bb0:	69eb      	ldr	r3, [r5, #28]
 8003bb2:	0109      	lsls	r1, r1, #4
 8003bb4:	021b      	lsls	r3, r3, #8
 8003bb6:	430b      	orrs	r3, r1
 8003bb8:	68e9      	ldr	r1, [r5, #12]
 8003bba:	6a38      	ldr	r0, [r7, #32]
 8003bbc:	430b      	orrs	r3, r1
 8003bbe:	6a29      	ldr	r1, [r5, #32]
 8003bc0:	0309      	lsls	r1, r1, #12
 8003bc2:	430b      	orrs	r3, r1
 8003bc4:	4313      	orrs	r3, r2
 8003bc6:	22aa      	movs	r2, #170	@ 0xaa
 8003bc8:	4390      	bics	r0, r2
 8003bca:	696a      	ldr	r2, [r5, #20]
 8003bcc:	686d      	ldr	r5, [r5, #4]
 8003bce:	0112      	lsls	r2, r2, #4
 8003bd0:	9901      	ldr	r1, [sp, #4]
 8003bd2:	432a      	orrs	r2, r5
 8003bd4:	4302      	orrs	r2, r0
 8003bd6:	60b9      	str	r1, [r7, #8]
 8003bd8:	61bb      	str	r3, [r7, #24]
 8003bda:	623a      	str	r2, [r7, #32]
 8003bdc:	0022      	movs	r2, r4
 8003bde:	2301      	movs	r3, #1
 8003be0:	2000      	movs	r0, #0
 8003be2:	3246      	adds	r2, #70	@ 0x46
 8003be4:	7013      	strb	r3, [r2, #0]
 8003be6:	3443      	adds	r4, #67	@ 0x43
 8003be8:	3a08      	subs	r2, #8
 8003bea:	7013      	strb	r3, [r2, #0]
 8003bec:	7053      	strb	r3, [r2, #1]
 8003bee:	7113      	strb	r3, [r2, #4]
 8003bf0:	7023      	strb	r3, [r4, #0]
 8003bf2:	7033      	strb	r3, [r6, #0]
 8003bf4:	bdfe      	pop	{r1, r2, r3, r4, r5, r6, r7, pc}
 8003bf6:	46c0      	nop			@ (mov r8, r8)
 8003bf8:	ffffbff8 	.word	0xffffbff8
 8003bfc:	fffffcfc 	.word	0xfffffcfc
 8003c00:	ffff0303 	.word	0xffff0303

08003c04 <HAL_TIMEx_MasterConfigSynchronization>:
 8003c04:	b570      	push	{r4, r5, r6, lr}
 8003c06:	0004      	movs	r4, r0
 8003c08:	2202      	movs	r2, #2
 8003c0a:	343c      	adds	r4, #60	@ 0x3c
 8003c0c:	7825      	ldrb	r5, [r4, #0]
 8003c0e:	0003      	movs	r3, r0
 8003c10:	0010      	movs	r0, r2
 8003c12:	2d01      	cmp	r5, #1
 8003c14:	d020      	beq.n	8003c58 <HAL_TIMEx_MasterConfigSynchronization+0x54>
 8003c16:	001d      	movs	r5, r3
 8003c18:	2670      	movs	r6, #112	@ 0x70
 8003c1a:	353d      	adds	r5, #61	@ 0x3d
 8003c1c:	702a      	strb	r2, [r5, #0]
 8003c1e:	681b      	ldr	r3, [r3, #0]
 8003c20:	6858      	ldr	r0, [r3, #4]
 8003c22:	689a      	ldr	r2, [r3, #8]
 8003c24:	43b0      	bics	r0, r6
 8003c26:	680e      	ldr	r6, [r1, #0]
 8003c28:	4330      	orrs	r0, r6
 8003c2a:	6058      	str	r0, [r3, #4]
 8003c2c:	480b      	ldr	r0, [pc, #44]	@ (8003c5c <HAL_TIMEx_MasterConfigSynchronization+0x58>)
 8003c2e:	4283      	cmp	r3, r0
 8003c30:	d009      	beq.n	8003c46 <HAL_TIMEx_MasterConfigSynchronization+0x42>
 8003c32:	2080      	movs	r0, #128	@ 0x80
 8003c34:	05c0      	lsls	r0, r0, #23
 8003c36:	4283      	cmp	r3, r0
 8003c38:	d005      	beq.n	8003c46 <HAL_TIMEx_MasterConfigSynchronization+0x42>
 8003c3a:	4809      	ldr	r0, [pc, #36]	@ (8003c60 <HAL_TIMEx_MasterConfigSynchronization+0x5c>)
 8003c3c:	4283      	cmp	r3, r0
 8003c3e:	d002      	beq.n	8003c46 <HAL_TIMEx_MasterConfigSynchronization+0x42>
 8003c40:	4808      	ldr	r0, [pc, #32]	@ (8003c64 <HAL_TIMEx_MasterConfigSynchronization+0x60>)
 8003c42:	4283      	cmp	r3, r0
 8003c44:	d104      	bne.n	8003c50 <HAL_TIMEx_MasterConfigSynchronization+0x4c>
 8003c46:	2080      	movs	r0, #128	@ 0x80
 8003c48:	6849      	ldr	r1, [r1, #4]
 8003c4a:	4382      	bics	r2, r0
 8003c4c:	430a      	orrs	r2, r1
 8003c4e:	609a      	str	r2, [r3, #8]
 8003c50:	2301      	movs	r3, #1
 8003c52:	2000      	movs	r0, #0
 8003c54:	702b      	strb	r3, [r5, #0]
 8003c56:	7020      	strb	r0, [r4, #0]
 8003c58:	bd70      	pop	{r4, r5, r6, pc}
 8003c5a:	46c0      	nop			@ (mov r8, r8)
 8003c5c:	40012c00 	.word	0x40012c00
 8003c60:	40000400 	.word	0x40000400
 8003c64:	40014000 	.word	0x40014000

08003c68 <HAL_TIMEx_CommutCallback>:
 8003c68:	4770      	bx	lr

08003c6a <HAL_TIMEx_BreakCallback>:
 8003c6a:	4770      	bx	lr

08003c6c <sniprintf>:
 8003c6c:	b40c      	push	{r2, r3}
 8003c6e:	b530      	push	{r4, r5, lr}
 8003c70:	4b17      	ldr	r3, [pc, #92]	@ (8003cd0 <sniprintf+0x64>)
 8003c72:	000c      	movs	r4, r1
 8003c74:	681d      	ldr	r5, [r3, #0]
 8003c76:	b09d      	sub	sp, #116	@ 0x74
 8003c78:	2900      	cmp	r1, #0
 8003c7a:	da08      	bge.n	8003c8e <sniprintf+0x22>
 8003c7c:	238b      	movs	r3, #139	@ 0x8b
 8003c7e:	2001      	movs	r0, #1
 8003c80:	602b      	str	r3, [r5, #0]
 8003c82:	4240      	negs	r0, r0
 8003c84:	b01d      	add	sp, #116	@ 0x74
 8003c86:	bc30      	pop	{r4, r5}
 8003c88:	bc08      	pop	{r3}
 8003c8a:	b002      	add	sp, #8
 8003c8c:	4718      	bx	r3
 8003c8e:	2382      	movs	r3, #130	@ 0x82
 8003c90:	466a      	mov	r2, sp
 8003c92:	009b      	lsls	r3, r3, #2
 8003c94:	8293      	strh	r3, [r2, #20]
 8003c96:	2300      	movs	r3, #0
 8003c98:	9002      	str	r0, [sp, #8]
 8003c9a:	9006      	str	r0, [sp, #24]
 8003c9c:	4299      	cmp	r1, r3
 8003c9e:	d000      	beq.n	8003ca2 <sniprintf+0x36>
 8003ca0:	1e4b      	subs	r3, r1, #1
 8003ca2:	9304      	str	r3, [sp, #16]
 8003ca4:	9307      	str	r3, [sp, #28]
 8003ca6:	2301      	movs	r3, #1
 8003ca8:	466a      	mov	r2, sp
 8003caa:	425b      	negs	r3, r3
 8003cac:	82d3      	strh	r3, [r2, #22]
 8003cae:	0028      	movs	r0, r5
 8003cb0:	ab21      	add	r3, sp, #132	@ 0x84
 8003cb2:	9a20      	ldr	r2, [sp, #128]	@ 0x80
 8003cb4:	a902      	add	r1, sp, #8
 8003cb6:	9301      	str	r3, [sp, #4]
 8003cb8:	f000 f9b4 	bl	8004024 <_svfiprintf_r>
 8003cbc:	1c43      	adds	r3, r0, #1
 8003cbe:	da01      	bge.n	8003cc4 <sniprintf+0x58>
 8003cc0:	238b      	movs	r3, #139	@ 0x8b
 8003cc2:	602b      	str	r3, [r5, #0]
 8003cc4:	2c00      	cmp	r4, #0
 8003cc6:	d0dd      	beq.n	8003c84 <sniprintf+0x18>
 8003cc8:	2200      	movs	r2, #0
 8003cca:	9b02      	ldr	r3, [sp, #8]
 8003ccc:	701a      	strb	r2, [r3, #0]
 8003cce:	e7d9      	b.n	8003c84 <sniprintf+0x18>
 8003cd0:	200000c8 	.word	0x200000c8

08003cd4 <memset>:
 8003cd4:	0003      	movs	r3, r0
 8003cd6:	1882      	adds	r2, r0, r2
 8003cd8:	4293      	cmp	r3, r2
 8003cda:	d100      	bne.n	8003cde <memset+0xa>
 8003cdc:	4770      	bx	lr
 8003cde:	7019      	strb	r1, [r3, #0]
 8003ce0:	3301      	adds	r3, #1
 8003ce2:	e7f9      	b.n	8003cd8 <memset+0x4>

08003ce4 <strcat>:
 8003ce4:	0002      	movs	r2, r0
 8003ce6:	b510      	push	{r4, lr}
 8003ce8:	7813      	ldrb	r3, [r2, #0]
 8003cea:	0014      	movs	r4, r2
 8003cec:	3201      	adds	r2, #1
 8003cee:	2b00      	cmp	r3, #0
 8003cf0:	d1fa      	bne.n	8003ce8 <strcat+0x4>
 8003cf2:	5cca      	ldrb	r2, [r1, r3]
 8003cf4:	54e2      	strb	r2, [r4, r3]
 8003cf6:	3301      	adds	r3, #1
 8003cf8:	2a00      	cmp	r2, #0
 8003cfa:	d1fa      	bne.n	8003cf2 <strcat+0xe>
 8003cfc:	bd10      	pop	{r4, pc}
	...

08003d00 <__errno>:
 8003d00:	4b01      	ldr	r3, [pc, #4]	@ (8003d08 <__errno+0x8>)
 8003d02:	6818      	ldr	r0, [r3, #0]
 8003d04:	4770      	bx	lr
 8003d06:	46c0      	nop			@ (mov r8, r8)
 8003d08:	200000c8 	.word	0x200000c8

08003d0c <__libc_init_array>:
 8003d0c:	b570      	push	{r4, r5, r6, lr}
 8003d0e:	2600      	movs	r6, #0
 8003d10:	4c0c      	ldr	r4, [pc, #48]	@ (8003d44 <__libc_init_array+0x38>)
 8003d12:	4d0d      	ldr	r5, [pc, #52]	@ (8003d48 <__libc_init_array+0x3c>)
 8003d14:	1b64      	subs	r4, r4, r5
 8003d16:	10a4      	asrs	r4, r4, #2
 8003d18:	42a6      	cmp	r6, r4
 8003d1a:	d109      	bne.n	8003d30 <__libc_init_array+0x24>
 8003d1c:	2600      	movs	r6, #0
 8003d1e:	f000 fc65 	bl	80045ec <_init>
 8003d22:	4c0a      	ldr	r4, [pc, #40]	@ (8003d4c <__libc_init_array+0x40>)
 8003d24:	4d0a      	ldr	r5, [pc, #40]	@ (8003d50 <__libc_init_array+0x44>)
 8003d26:	1b64      	subs	r4, r4, r5
 8003d28:	10a4      	asrs	r4, r4, #2
 8003d2a:	42a6      	cmp	r6, r4
 8003d2c:	d105      	bne.n	8003d3a <__libc_init_array+0x2e>
 8003d2e:	bd70      	pop	{r4, r5, r6, pc}
 8003d30:	00b3      	lsls	r3, r6, #2
 8003d32:	58eb      	ldr	r3, [r5, r3]
 8003d34:	4798      	blx	r3
 8003d36:	3601      	adds	r6, #1
 8003d38:	e7ee      	b.n	8003d18 <__libc_init_array+0xc>
 8003d3a:	00b3      	lsls	r3, r6, #2
 8003d3c:	58eb      	ldr	r3, [r5, r3]
 8003d3e:	4798      	blx	r3
 8003d40:	3601      	adds	r6, #1
 8003d42:	e7f2      	b.n	8003d2a <__libc_init_array+0x1e>
 8003d44:	08006228 	.word	0x08006228
 8003d48:	08006228 	.word	0x08006228
 8003d4c:	0800622c 	.word	0x0800622c
 8003d50:	08006228 	.word	0x08006228

08003d54 <__retarget_lock_acquire_recursive>:
 8003d54:	4770      	bx	lr

08003d56 <__retarget_lock_release_recursive>:
 8003d56:	4770      	bx	lr

08003d58 <memcpy>:
 8003d58:	2300      	movs	r3, #0
 8003d5a:	b510      	push	{r4, lr}
 8003d5c:	429a      	cmp	r2, r3
 8003d5e:	d100      	bne.n	8003d62 <memcpy+0xa>
 8003d60:	bd10      	pop	{r4, pc}
 8003d62:	5ccc      	ldrb	r4, [r1, r3]
 8003d64:	54c4      	strb	r4, [r0, r3]
 8003d66:	3301      	adds	r3, #1
 8003d68:	e7f8      	b.n	8003d5c <memcpy+0x4>
	...

08003d6c <_free_r>:
 8003d6c:	b570      	push	{r4, r5, r6, lr}
 8003d6e:	0005      	movs	r5, r0
 8003d70:	1e0c      	subs	r4, r1, #0
 8003d72:	d010      	beq.n	8003d96 <_free_r+0x2a>
 8003d74:	3c04      	subs	r4, #4
 8003d76:	6823      	ldr	r3, [r4, #0]
 8003d78:	2b00      	cmp	r3, #0
 8003d7a:	da00      	bge.n	8003d7e <_free_r+0x12>
 8003d7c:	18e4      	adds	r4, r4, r3
 8003d7e:	0028      	movs	r0, r5
 8003d80:	f000 f8e0 	bl	8003f44 <__malloc_lock>
 8003d84:	4a1d      	ldr	r2, [pc, #116]	@ (8003dfc <_free_r+0x90>)
 8003d86:	6813      	ldr	r3, [r2, #0]
 8003d88:	2b00      	cmp	r3, #0
 8003d8a:	d105      	bne.n	8003d98 <_free_r+0x2c>
 8003d8c:	6063      	str	r3, [r4, #4]
 8003d8e:	6014      	str	r4, [r2, #0]
 8003d90:	0028      	movs	r0, r5
 8003d92:	f000 f8df 	bl	8003f54 <__malloc_unlock>
 8003d96:	bd70      	pop	{r4, r5, r6, pc}
 8003d98:	42a3      	cmp	r3, r4
 8003d9a:	d908      	bls.n	8003dae <_free_r+0x42>
 8003d9c:	6820      	ldr	r0, [r4, #0]
 8003d9e:	1821      	adds	r1, r4, r0
 8003da0:	428b      	cmp	r3, r1
 8003da2:	d1f3      	bne.n	8003d8c <_free_r+0x20>
 8003da4:	6819      	ldr	r1, [r3, #0]
 8003da6:	685b      	ldr	r3, [r3, #4]
 8003da8:	1809      	adds	r1, r1, r0
 8003daa:	6021      	str	r1, [r4, #0]
 8003dac:	e7ee      	b.n	8003d8c <_free_r+0x20>
 8003dae:	001a      	movs	r2, r3
 8003db0:	685b      	ldr	r3, [r3, #4]
 8003db2:	2b00      	cmp	r3, #0
 8003db4:	d001      	beq.n	8003dba <_free_r+0x4e>
 8003db6:	42a3      	cmp	r3, r4
 8003db8:	d9f9      	bls.n	8003dae <_free_r+0x42>
 8003dba:	6811      	ldr	r1, [r2, #0]
 8003dbc:	1850      	adds	r0, r2, r1
 8003dbe:	42a0      	cmp	r0, r4
 8003dc0:	d10b      	bne.n	8003dda <_free_r+0x6e>
 8003dc2:	6820      	ldr	r0, [r4, #0]
 8003dc4:	1809      	adds	r1, r1, r0
 8003dc6:	1850      	adds	r0, r2, r1
 8003dc8:	6011      	str	r1, [r2, #0]
 8003dca:	4283      	cmp	r3, r0
 8003dcc:	d1e0      	bne.n	8003d90 <_free_r+0x24>
 8003dce:	6818      	ldr	r0, [r3, #0]
 8003dd0:	685b      	ldr	r3, [r3, #4]
 8003dd2:	1841      	adds	r1, r0, r1
 8003dd4:	6011      	str	r1, [r2, #0]
 8003dd6:	6053      	str	r3, [r2, #4]
 8003dd8:	e7da      	b.n	8003d90 <_free_r+0x24>
 8003dda:	42a0      	cmp	r0, r4
 8003ddc:	d902      	bls.n	8003de4 <_free_r+0x78>
 8003dde:	230c      	movs	r3, #12
 8003de0:	602b      	str	r3, [r5, #0]
 8003de2:	e7d5      	b.n	8003d90 <_free_r+0x24>
 8003de4:	6820      	ldr	r0, [r4, #0]
 8003de6:	1821      	adds	r1, r4, r0
 8003de8:	428b      	cmp	r3, r1
 8003dea:	d103      	bne.n	8003df4 <_free_r+0x88>
 8003dec:	6819      	ldr	r1, [r3, #0]
 8003dee:	685b      	ldr	r3, [r3, #4]
 8003df0:	1809      	adds	r1, r1, r0
 8003df2:	6021      	str	r1, [r4, #0]
 8003df4:	6063      	str	r3, [r4, #4]
 8003df6:	6054      	str	r4, [r2, #4]
 8003df8:	e7ca      	b.n	8003d90 <_free_r+0x24>
 8003dfa:	46c0      	nop			@ (mov r8, r8)
 8003dfc:	20000970 	.word	0x20000970

08003e00 <sbrk_aligned>:
 8003e00:	b570      	push	{r4, r5, r6, lr}
 8003e02:	4e0f      	ldr	r6, [pc, #60]	@ (8003e40 <sbrk_aligned+0x40>)
 8003e04:	000d      	movs	r5, r1
 8003e06:	6831      	ldr	r1, [r6, #0]
 8003e08:	0004      	movs	r4, r0
 8003e0a:	2900      	cmp	r1, #0
 8003e0c:	d102      	bne.n	8003e14 <sbrk_aligned+0x14>
 8003e0e:	f000 fb99 	bl	8004544 <_sbrk_r>
 8003e12:	6030      	str	r0, [r6, #0]
 8003e14:	0029      	movs	r1, r5
 8003e16:	0020      	movs	r0, r4
 8003e18:	f000 fb94 	bl	8004544 <_sbrk_r>
 8003e1c:	1c43      	adds	r3, r0, #1
 8003e1e:	d103      	bne.n	8003e28 <sbrk_aligned+0x28>
 8003e20:	2501      	movs	r5, #1
 8003e22:	426d      	negs	r5, r5
 8003e24:	0028      	movs	r0, r5
 8003e26:	bd70      	pop	{r4, r5, r6, pc}
 8003e28:	2303      	movs	r3, #3
 8003e2a:	1cc5      	adds	r5, r0, #3
 8003e2c:	439d      	bics	r5, r3
 8003e2e:	42a8      	cmp	r0, r5
 8003e30:	d0f8      	beq.n	8003e24 <sbrk_aligned+0x24>
 8003e32:	1a29      	subs	r1, r5, r0
 8003e34:	0020      	movs	r0, r4
 8003e36:	f000 fb85 	bl	8004544 <_sbrk_r>
 8003e3a:	3001      	adds	r0, #1
 8003e3c:	d1f2      	bne.n	8003e24 <sbrk_aligned+0x24>
 8003e3e:	e7ef      	b.n	8003e20 <sbrk_aligned+0x20>
 8003e40:	2000096c 	.word	0x2000096c

08003e44 <_malloc_r>:
 8003e44:	b5f7      	push	{r0, r1, r2, r4, r5, r6, r7, lr}
 8003e46:	2203      	movs	r2, #3
 8003e48:	1ccb      	adds	r3, r1, #3
 8003e4a:	4393      	bics	r3, r2
 8003e4c:	3308      	adds	r3, #8
 8003e4e:	0005      	movs	r5, r0
 8003e50:	001f      	movs	r7, r3
 8003e52:	2b0c      	cmp	r3, #12
 8003e54:	d234      	bcs.n	8003ec0 <_malloc_r+0x7c>
 8003e56:	270c      	movs	r7, #12
 8003e58:	42b9      	cmp	r1, r7
 8003e5a:	d833      	bhi.n	8003ec4 <_malloc_r+0x80>
 8003e5c:	0028      	movs	r0, r5
 8003e5e:	f000 f871 	bl	8003f44 <__malloc_lock>
 8003e62:	4e37      	ldr	r6, [pc, #220]	@ (8003f40 <_malloc_r+0xfc>)
 8003e64:	6833      	ldr	r3, [r6, #0]
 8003e66:	001c      	movs	r4, r3
 8003e68:	2c00      	cmp	r4, #0
 8003e6a:	d12f      	bne.n	8003ecc <_malloc_r+0x88>
 8003e6c:	0039      	movs	r1, r7
 8003e6e:	0028      	movs	r0, r5
 8003e70:	f7ff ffc6 	bl	8003e00 <sbrk_aligned>
 8003e74:	0004      	movs	r4, r0
 8003e76:	1c43      	adds	r3, r0, #1
 8003e78:	d15f      	bne.n	8003f3a <_malloc_r+0xf6>
 8003e7a:	6834      	ldr	r4, [r6, #0]
 8003e7c:	9400      	str	r4, [sp, #0]
 8003e7e:	9b00      	ldr	r3, [sp, #0]
 8003e80:	2b00      	cmp	r3, #0
 8003e82:	d14a      	bne.n	8003f1a <_malloc_r+0xd6>
 8003e84:	2c00      	cmp	r4, #0
 8003e86:	d052      	beq.n	8003f2e <_malloc_r+0xea>
 8003e88:	6823      	ldr	r3, [r4, #0]
 8003e8a:	0028      	movs	r0, r5
 8003e8c:	18e3      	adds	r3, r4, r3
 8003e8e:	9900      	ldr	r1, [sp, #0]
 8003e90:	9301      	str	r3, [sp, #4]
 8003e92:	f000 fb57 	bl	8004544 <_sbrk_r>
 8003e96:	9b01      	ldr	r3, [sp, #4]
 8003e98:	4283      	cmp	r3, r0
 8003e9a:	d148      	bne.n	8003f2e <_malloc_r+0xea>
 8003e9c:	6823      	ldr	r3, [r4, #0]
 8003e9e:	0028      	movs	r0, r5
 8003ea0:	1aff      	subs	r7, r7, r3
 8003ea2:	0039      	movs	r1, r7
 8003ea4:	f7ff ffac 	bl	8003e00 <sbrk_aligned>
 8003ea8:	3001      	adds	r0, #1
 8003eaa:	d040      	beq.n	8003f2e <_malloc_r+0xea>
 8003eac:	6823      	ldr	r3, [r4, #0]
 8003eae:	19db      	adds	r3, r3, r7
 8003eb0:	6023      	str	r3, [r4, #0]
 8003eb2:	6833      	ldr	r3, [r6, #0]
 8003eb4:	685a      	ldr	r2, [r3, #4]
 8003eb6:	2a00      	cmp	r2, #0
 8003eb8:	d133      	bne.n	8003f22 <_malloc_r+0xde>
 8003eba:	9b00      	ldr	r3, [sp, #0]
 8003ebc:	6033      	str	r3, [r6, #0]
 8003ebe:	e019      	b.n	8003ef4 <_malloc_r+0xb0>
 8003ec0:	2b00      	cmp	r3, #0
 8003ec2:	dac9      	bge.n	8003e58 <_malloc_r+0x14>
 8003ec4:	230c      	movs	r3, #12
 8003ec6:	602b      	str	r3, [r5, #0]
 8003ec8:	2000      	movs	r0, #0
 8003eca:	bdfe      	pop	{r1, r2, r3, r4, r5, r6, r7, pc}
 8003ecc:	6821      	ldr	r1, [r4, #0]
 8003ece:	1bc9      	subs	r1, r1, r7
 8003ed0:	d420      	bmi.n	8003f14 <_malloc_r+0xd0>
 8003ed2:	290b      	cmp	r1, #11
 8003ed4:	d90a      	bls.n	8003eec <_malloc_r+0xa8>
 8003ed6:	19e2      	adds	r2, r4, r7
 8003ed8:	6027      	str	r7, [r4, #0]
 8003eda:	42a3      	cmp	r3, r4
 8003edc:	d104      	bne.n	8003ee8 <_malloc_r+0xa4>
 8003ede:	6032      	str	r2, [r6, #0]
 8003ee0:	6863      	ldr	r3, [r4, #4]
 8003ee2:	6011      	str	r1, [r2, #0]
 8003ee4:	6053      	str	r3, [r2, #4]
 8003ee6:	e005      	b.n	8003ef4 <_malloc_r+0xb0>
 8003ee8:	605a      	str	r2, [r3, #4]
 8003eea:	e7f9      	b.n	8003ee0 <_malloc_r+0x9c>
 8003eec:	6862      	ldr	r2, [r4, #4]
 8003eee:	42a3      	cmp	r3, r4
 8003ef0:	d10e      	bne.n	8003f10 <_malloc_r+0xcc>
 8003ef2:	6032      	str	r2, [r6, #0]
 8003ef4:	0028      	movs	r0, r5
 8003ef6:	f000 f82d 	bl	8003f54 <__malloc_unlock>
 8003efa:	0020      	movs	r0, r4
 8003efc:	2207      	movs	r2, #7
 8003efe:	300b      	adds	r0, #11
 8003f00:	1d23      	adds	r3, r4, #4
 8003f02:	4390      	bics	r0, r2
 8003f04:	1ac2      	subs	r2, r0, r3
 8003f06:	4298      	cmp	r0, r3
 8003f08:	d0df      	beq.n	8003eca <_malloc_r+0x86>
 8003f0a:	1a1b      	subs	r3, r3, r0
 8003f0c:	50a3      	str	r3, [r4, r2]
 8003f0e:	e7dc      	b.n	8003eca <_malloc_r+0x86>
 8003f10:	605a      	str	r2, [r3, #4]
 8003f12:	e7ef      	b.n	8003ef4 <_malloc_r+0xb0>
 8003f14:	0023      	movs	r3, r4
 8003f16:	6864      	ldr	r4, [r4, #4]
 8003f18:	e7a6      	b.n	8003e68 <_malloc_r+0x24>
 8003f1a:	9c00      	ldr	r4, [sp, #0]
 8003f1c:	6863      	ldr	r3, [r4, #4]
 8003f1e:	9300      	str	r3, [sp, #0]
 8003f20:	e7ad      	b.n	8003e7e <_malloc_r+0x3a>
 8003f22:	001a      	movs	r2, r3
 8003f24:	685b      	ldr	r3, [r3, #4]
 8003f26:	42a3      	cmp	r3, r4
 8003f28:	d1fb      	bne.n	8003f22 <_malloc_r+0xde>
 8003f2a:	2300      	movs	r3, #0
 8003f2c:	e7da      	b.n	8003ee4 <_malloc_r+0xa0>
 8003f2e:	230c      	movs	r3, #12
 8003f30:	0028      	movs	r0, r5
 8003f32:	602b      	str	r3, [r5, #0]
 8003f34:	f000 f80e 	bl	8003f54 <__malloc_unlock>
 8003f38:	e7c6      	b.n	8003ec8 <_malloc_r+0x84>
 8003f3a:	6007      	str	r7, [r0, #0]
 8003f3c:	e7da      	b.n	8003ef4 <_malloc_r+0xb0>
 8003f3e:	46c0      	nop			@ (mov r8, r8)
 8003f40:	20000970 	.word	0x20000970

08003f44 <__malloc_lock>:
 8003f44:	b510      	push	{r4, lr}
 8003f46:	4802      	ldr	r0, [pc, #8]	@ (8003f50 <__malloc_lock+0xc>)
 8003f48:	f7ff ff04 	bl	8003d54 <__retarget_lock_acquire_recursive>
 8003f4c:	bd10      	pop	{r4, pc}
 8003f4e:	46c0      	nop			@ (mov r8, r8)
 8003f50:	20000968 	.word	0x20000968

08003f54 <__malloc_unlock>:
 8003f54:	b510      	push	{r4, lr}
 8003f56:	4802      	ldr	r0, [pc, #8]	@ (8003f60 <__malloc_unlock+0xc>)
 8003f58:	f7ff fefd 	bl	8003d56 <__retarget_lock_release_recursive>
 8003f5c:	bd10      	pop	{r4, pc}
 8003f5e:	46c0      	nop			@ (mov r8, r8)
 8003f60:	20000968 	.word	0x20000968

08003f64 <__ssputs_r>:
 8003f64:	b5f0      	push	{r4, r5, r6, r7, lr}
 8003f66:	688e      	ldr	r6, [r1, #8]
 8003f68:	b085      	sub	sp, #20
 8003f6a:	001f      	movs	r7, r3
 8003f6c:	000c      	movs	r4, r1
 8003f6e:	680b      	ldr	r3, [r1, #0]
 8003f70:	9002      	str	r0, [sp, #8]
 8003f72:	9203      	str	r2, [sp, #12]
 8003f74:	42be      	cmp	r6, r7
 8003f76:	d830      	bhi.n	8003fda <__ssputs_r+0x76>
 8003f78:	210c      	movs	r1, #12
 8003f7a:	5e62      	ldrsh	r2, [r4, r1]
 8003f7c:	2190      	movs	r1, #144	@ 0x90
 8003f7e:	00c9      	lsls	r1, r1, #3
 8003f80:	420a      	tst	r2, r1
 8003f82:	d028      	beq.n	8003fd6 <__ssputs_r+0x72>
 8003f84:	2003      	movs	r0, #3
 8003f86:	6921      	ldr	r1, [r4, #16]
 8003f88:	1a5b      	subs	r3, r3, r1
 8003f8a:	9301      	str	r3, [sp, #4]
 8003f8c:	6963      	ldr	r3, [r4, #20]
 8003f8e:	4343      	muls	r3, r0
 8003f90:	9801      	ldr	r0, [sp, #4]
 8003f92:	0fdd      	lsrs	r5, r3, #31
 8003f94:	18ed      	adds	r5, r5, r3
 8003f96:	1c7b      	adds	r3, r7, #1
 8003f98:	181b      	adds	r3, r3, r0
 8003f9a:	106d      	asrs	r5, r5, #1
 8003f9c:	42ab      	cmp	r3, r5
 8003f9e:	d900      	bls.n	8003fa2 <__ssputs_r+0x3e>
 8003fa0:	001d      	movs	r5, r3
 8003fa2:	0552      	lsls	r2, r2, #21
 8003fa4:	d528      	bpl.n	8003ff8 <__ssputs_r+0x94>
 8003fa6:	0029      	movs	r1, r5
 8003fa8:	9802      	ldr	r0, [sp, #8]
 8003faa:	f7ff ff4b 	bl	8003e44 <_malloc_r>
 8003fae:	1e06      	subs	r6, r0, #0
 8003fb0:	d02c      	beq.n	800400c <__ssputs_r+0xa8>
 8003fb2:	9a01      	ldr	r2, [sp, #4]
 8003fb4:	6921      	ldr	r1, [r4, #16]
 8003fb6:	f7ff fecf 	bl	8003d58 <memcpy>
 8003fba:	89a2      	ldrh	r2, [r4, #12]
 8003fbc:	4b18      	ldr	r3, [pc, #96]	@ (8004020 <__ssputs_r+0xbc>)
 8003fbe:	401a      	ands	r2, r3
 8003fc0:	2380      	movs	r3, #128	@ 0x80
 8003fc2:	4313      	orrs	r3, r2
 8003fc4:	81a3      	strh	r3, [r4, #12]
 8003fc6:	9b01      	ldr	r3, [sp, #4]
 8003fc8:	6126      	str	r6, [r4, #16]
 8003fca:	18f6      	adds	r6, r6, r3
 8003fcc:	6026      	str	r6, [r4, #0]
 8003fce:	003e      	movs	r6, r7
 8003fd0:	6165      	str	r5, [r4, #20]
 8003fd2:	1aed      	subs	r5, r5, r3
 8003fd4:	60a5      	str	r5, [r4, #8]
 8003fd6:	42be      	cmp	r6, r7
 8003fd8:	d900      	bls.n	8003fdc <__ssputs_r+0x78>
 8003fda:	003e      	movs	r6, r7
 8003fdc:	0032      	movs	r2, r6
 8003fde:	9903      	ldr	r1, [sp, #12]
 8003fe0:	6820      	ldr	r0, [r4, #0]
 8003fe2:	f000 fa9b 	bl	800451c <memmove>
 8003fe6:	2000      	movs	r0, #0
 8003fe8:	68a3      	ldr	r3, [r4, #8]
 8003fea:	1b9b      	subs	r3, r3, r6
 8003fec:	60a3      	str	r3, [r4, #8]
 8003fee:	6823      	ldr	r3, [r4, #0]
 8003ff0:	199b      	adds	r3, r3, r6
 8003ff2:	6023      	str	r3, [r4, #0]
 8003ff4:	b005      	add	sp, #20
 8003ff6:	bdf0      	pop	{r4, r5, r6, r7, pc}
 8003ff8:	002a      	movs	r2, r5
 8003ffa:	9802      	ldr	r0, [sp, #8]
 8003ffc:	f000 fabf 	bl	800457e <_realloc_r>
 8004000:	1e06      	subs	r6, r0, #0
 8004002:	d1e0      	bne.n	8003fc6 <__ssputs_r+0x62>
 8004004:	6921      	ldr	r1, [r4, #16]
 8004006:	9802      	ldr	r0, [sp, #8]
 8004008:	f7ff feb0 	bl	8003d6c <_free_r>
 800400c:	230c      	movs	r3, #12
 800400e:	2001      	movs	r0, #1
 8004010:	9a02      	ldr	r2, [sp, #8]
 8004012:	4240      	negs	r0, r0
 8004014:	6013      	str	r3, [r2, #0]
 8004016:	89a2      	ldrh	r2, [r4, #12]
 8004018:	3334      	adds	r3, #52	@ 0x34
 800401a:	4313      	orrs	r3, r2
 800401c:	81a3      	strh	r3, [r4, #12]
 800401e:	e7e9      	b.n	8003ff4 <__ssputs_r+0x90>
 8004020:	fffffb7f 	.word	0xfffffb7f

08004024 <_svfiprintf_r>:
 8004024:	b5f0      	push	{r4, r5, r6, r7, lr}
 8004026:	b0a1      	sub	sp, #132	@ 0x84
 8004028:	9003      	str	r0, [sp, #12]
 800402a:	001d      	movs	r5, r3
 800402c:	898b      	ldrh	r3, [r1, #12]
 800402e:	000f      	movs	r7, r1
 8004030:	0016      	movs	r6, r2
 8004032:	061b      	lsls	r3, r3, #24
 8004034:	d511      	bpl.n	800405a <_svfiprintf_r+0x36>
 8004036:	690b      	ldr	r3, [r1, #16]
 8004038:	2b00      	cmp	r3, #0
 800403a:	d10e      	bne.n	800405a <_svfiprintf_r+0x36>
 800403c:	2140      	movs	r1, #64	@ 0x40
 800403e:	f7ff ff01 	bl	8003e44 <_malloc_r>
 8004042:	6038      	str	r0, [r7, #0]
 8004044:	6138      	str	r0, [r7, #16]
 8004046:	2800      	cmp	r0, #0
 8004048:	d105      	bne.n	8004056 <_svfiprintf_r+0x32>
 800404a:	230c      	movs	r3, #12
 800404c:	9a03      	ldr	r2, [sp, #12]
 800404e:	6013      	str	r3, [r2, #0]
 8004050:	2001      	movs	r0, #1
 8004052:	4240      	negs	r0, r0
 8004054:	e0cf      	b.n	80041f6 <_svfiprintf_r+0x1d2>
 8004056:	2340      	movs	r3, #64	@ 0x40
 8004058:	617b      	str	r3, [r7, #20]
 800405a:	2300      	movs	r3, #0
 800405c:	ac08      	add	r4, sp, #32
 800405e:	6163      	str	r3, [r4, #20]
 8004060:	3320      	adds	r3, #32
 8004062:	7663      	strb	r3, [r4, #25]
 8004064:	3310      	adds	r3, #16
 8004066:	76a3      	strb	r3, [r4, #26]
 8004068:	9507      	str	r5, [sp, #28]
 800406a:	0035      	movs	r5, r6
 800406c:	782b      	ldrb	r3, [r5, #0]
 800406e:	2b00      	cmp	r3, #0
 8004070:	d001      	beq.n	8004076 <_svfiprintf_r+0x52>
 8004072:	2b25      	cmp	r3, #37	@ 0x25
 8004074:	d148      	bne.n	8004108 <_svfiprintf_r+0xe4>
 8004076:	1bab      	subs	r3, r5, r6
 8004078:	9305      	str	r3, [sp, #20]
 800407a:	42b5      	cmp	r5, r6
 800407c:	d00b      	beq.n	8004096 <_svfiprintf_r+0x72>
 800407e:	0032      	movs	r2, r6
 8004080:	0039      	movs	r1, r7
 8004082:	9803      	ldr	r0, [sp, #12]
 8004084:	f7ff ff6e 	bl	8003f64 <__ssputs_r>
 8004088:	3001      	adds	r0, #1
 800408a:	d100      	bne.n	800408e <_svfiprintf_r+0x6a>
 800408c:	e0ae      	b.n	80041ec <_svfiprintf_r+0x1c8>
 800408e:	6963      	ldr	r3, [r4, #20]
 8004090:	9a05      	ldr	r2, [sp, #20]
 8004092:	189b      	adds	r3, r3, r2
 8004094:	6163      	str	r3, [r4, #20]
 8004096:	782b      	ldrb	r3, [r5, #0]
 8004098:	2b00      	cmp	r3, #0
 800409a:	d100      	bne.n	800409e <_svfiprintf_r+0x7a>
 800409c:	e0a6      	b.n	80041ec <_svfiprintf_r+0x1c8>
 800409e:	2201      	movs	r2, #1
 80040a0:	2300      	movs	r3, #0
 80040a2:	4252      	negs	r2, r2
 80040a4:	6062      	str	r2, [r4, #4]
 80040a6:	a904      	add	r1, sp, #16
 80040a8:	3254      	adds	r2, #84	@ 0x54
 80040aa:	1852      	adds	r2, r2, r1
 80040ac:	1c6e      	adds	r6, r5, #1
 80040ae:	6023      	str	r3, [r4, #0]
 80040b0:	60e3      	str	r3, [r4, #12]
 80040b2:	60a3      	str	r3, [r4, #8]
 80040b4:	7013      	strb	r3, [r2, #0]
 80040b6:	65a3      	str	r3, [r4, #88]	@ 0x58
 80040b8:	4b54      	ldr	r3, [pc, #336]	@ (800420c <_svfiprintf_r+0x1e8>)
 80040ba:	2205      	movs	r2, #5
 80040bc:	0018      	movs	r0, r3
 80040be:	7831      	ldrb	r1, [r6, #0]
 80040c0:	9305      	str	r3, [sp, #20]
 80040c2:	f000 fa51 	bl	8004568 <memchr>
 80040c6:	1c75      	adds	r5, r6, #1
 80040c8:	2800      	cmp	r0, #0
 80040ca:	d11f      	bne.n	800410c <_svfiprintf_r+0xe8>
 80040cc:	6822      	ldr	r2, [r4, #0]
 80040ce:	06d3      	lsls	r3, r2, #27
 80040d0:	d504      	bpl.n	80040dc <_svfiprintf_r+0xb8>
 80040d2:	2353      	movs	r3, #83	@ 0x53
 80040d4:	a904      	add	r1, sp, #16
 80040d6:	185b      	adds	r3, r3, r1
 80040d8:	2120      	movs	r1, #32
 80040da:	7019      	strb	r1, [r3, #0]
 80040dc:	0713      	lsls	r3, r2, #28
 80040de:	d504      	bpl.n	80040ea <_svfiprintf_r+0xc6>
 80040e0:	2353      	movs	r3, #83	@ 0x53
 80040e2:	a904      	add	r1, sp, #16
 80040e4:	185b      	adds	r3, r3, r1
 80040e6:	212b      	movs	r1, #43	@ 0x2b
 80040e8:	7019      	strb	r1, [r3, #0]
 80040ea:	7833      	ldrb	r3, [r6, #0]
 80040ec:	2b2a      	cmp	r3, #42	@ 0x2a
 80040ee:	d016      	beq.n	800411e <_svfiprintf_r+0xfa>
 80040f0:	0035      	movs	r5, r6
 80040f2:	2100      	movs	r1, #0
 80040f4:	200a      	movs	r0, #10
 80040f6:	68e3      	ldr	r3, [r4, #12]
 80040f8:	782a      	ldrb	r2, [r5, #0]
 80040fa:	1c6e      	adds	r6, r5, #1
 80040fc:	3a30      	subs	r2, #48	@ 0x30
 80040fe:	2a09      	cmp	r2, #9
 8004100:	d950      	bls.n	80041a4 <_svfiprintf_r+0x180>
 8004102:	2900      	cmp	r1, #0
 8004104:	d111      	bne.n	800412a <_svfiprintf_r+0x106>
 8004106:	e017      	b.n	8004138 <_svfiprintf_r+0x114>
 8004108:	3501      	adds	r5, #1
 800410a:	e7af      	b.n	800406c <_svfiprintf_r+0x48>
 800410c:	9b05      	ldr	r3, [sp, #20]
 800410e:	6822      	ldr	r2, [r4, #0]
 8004110:	1ac0      	subs	r0, r0, r3
 8004112:	2301      	movs	r3, #1
 8004114:	4083      	lsls	r3, r0
 8004116:	4313      	orrs	r3, r2
 8004118:	002e      	movs	r6, r5
 800411a:	6023      	str	r3, [r4, #0]
 800411c:	e7cc      	b.n	80040b8 <_svfiprintf_r+0x94>
 800411e:	9b07      	ldr	r3, [sp, #28]
 8004120:	1d19      	adds	r1, r3, #4
 8004122:	681b      	ldr	r3, [r3, #0]
 8004124:	9107      	str	r1, [sp, #28]
 8004126:	2b00      	cmp	r3, #0
 8004128:	db01      	blt.n	800412e <_svfiprintf_r+0x10a>
 800412a:	930b      	str	r3, [sp, #44]	@ 0x2c
 800412c:	e004      	b.n	8004138 <_svfiprintf_r+0x114>
 800412e:	425b      	negs	r3, r3
 8004130:	60e3      	str	r3, [r4, #12]
 8004132:	2302      	movs	r3, #2
 8004134:	4313      	orrs	r3, r2
 8004136:	6023      	str	r3, [r4, #0]
 8004138:	782b      	ldrb	r3, [r5, #0]
 800413a:	2b2e      	cmp	r3, #46	@ 0x2e
 800413c:	d10c      	bne.n	8004158 <_svfiprintf_r+0x134>
 800413e:	786b      	ldrb	r3, [r5, #1]
 8004140:	2b2a      	cmp	r3, #42	@ 0x2a
 8004142:	d134      	bne.n	80041ae <_svfiprintf_r+0x18a>
 8004144:	9b07      	ldr	r3, [sp, #28]
 8004146:	3502      	adds	r5, #2
 8004148:	1d1a      	adds	r2, r3, #4
 800414a:	681b      	ldr	r3, [r3, #0]
 800414c:	9207      	str	r2, [sp, #28]
 800414e:	2b00      	cmp	r3, #0
 8004150:	da01      	bge.n	8004156 <_svfiprintf_r+0x132>
 8004152:	2301      	movs	r3, #1
 8004154:	425b      	negs	r3, r3
 8004156:	9309      	str	r3, [sp, #36]	@ 0x24
 8004158:	4e2d      	ldr	r6, [pc, #180]	@ (8004210 <_svfiprintf_r+0x1ec>)
 800415a:	2203      	movs	r2, #3
 800415c:	0030      	movs	r0, r6
 800415e:	7829      	ldrb	r1, [r5, #0]
 8004160:	f000 fa02 	bl	8004568 <memchr>
 8004164:	2800      	cmp	r0, #0
 8004166:	d006      	beq.n	8004176 <_svfiprintf_r+0x152>
 8004168:	2340      	movs	r3, #64	@ 0x40
 800416a:	1b80      	subs	r0, r0, r6
 800416c:	4083      	lsls	r3, r0
 800416e:	6822      	ldr	r2, [r4, #0]
 8004170:	3501      	adds	r5, #1
 8004172:	4313      	orrs	r3, r2
 8004174:	6023      	str	r3, [r4, #0]
 8004176:	7829      	ldrb	r1, [r5, #0]
 8004178:	2206      	movs	r2, #6
 800417a:	4826      	ldr	r0, [pc, #152]	@ (8004214 <_svfiprintf_r+0x1f0>)
 800417c:	1c6e      	adds	r6, r5, #1
 800417e:	7621      	strb	r1, [r4, #24]
 8004180:	f000 f9f2 	bl	8004568 <memchr>
 8004184:	2800      	cmp	r0, #0
 8004186:	d038      	beq.n	80041fa <_svfiprintf_r+0x1d6>
 8004188:	4b23      	ldr	r3, [pc, #140]	@ (8004218 <_svfiprintf_r+0x1f4>)
 800418a:	2b00      	cmp	r3, #0
 800418c:	d122      	bne.n	80041d4 <_svfiprintf_r+0x1b0>
 800418e:	2207      	movs	r2, #7
 8004190:	9b07      	ldr	r3, [sp, #28]
 8004192:	3307      	adds	r3, #7
 8004194:	4393      	bics	r3, r2
 8004196:	3308      	adds	r3, #8
 8004198:	9307      	str	r3, [sp, #28]
 800419a:	6963      	ldr	r3, [r4, #20]
 800419c:	9a04      	ldr	r2, [sp, #16]
 800419e:	189b      	adds	r3, r3, r2
 80041a0:	6163      	str	r3, [r4, #20]
 80041a2:	e762      	b.n	800406a <_svfiprintf_r+0x46>
 80041a4:	4343      	muls	r3, r0
 80041a6:	0035      	movs	r5, r6
 80041a8:	2101      	movs	r1, #1
 80041aa:	189b      	adds	r3, r3, r2
 80041ac:	e7a4      	b.n	80040f8 <_svfiprintf_r+0xd4>
 80041ae:	2300      	movs	r3, #0
 80041b0:	200a      	movs	r0, #10
 80041b2:	0019      	movs	r1, r3
 80041b4:	3501      	adds	r5, #1
 80041b6:	6063      	str	r3, [r4, #4]
 80041b8:	782a      	ldrb	r2, [r5, #0]
 80041ba:	1c6e      	adds	r6, r5, #1
 80041bc:	3a30      	subs	r2, #48	@ 0x30
 80041be:	2a09      	cmp	r2, #9
 80041c0:	d903      	bls.n	80041ca <_svfiprintf_r+0x1a6>
 80041c2:	2b00      	cmp	r3, #0
 80041c4:	d0c8      	beq.n	8004158 <_svfiprintf_r+0x134>
 80041c6:	9109      	str	r1, [sp, #36]	@ 0x24
 80041c8:	e7c6      	b.n	8004158 <_svfiprintf_r+0x134>
 80041ca:	4341      	muls	r1, r0
 80041cc:	0035      	movs	r5, r6
 80041ce:	2301      	movs	r3, #1
 80041d0:	1889      	adds	r1, r1, r2
 80041d2:	e7f1      	b.n	80041b8 <_svfiprintf_r+0x194>
 80041d4:	aa07      	add	r2, sp, #28
 80041d6:	9200      	str	r2, [sp, #0]
 80041d8:	0021      	movs	r1, r4
 80041da:	003a      	movs	r2, r7
 80041dc:	4b0f      	ldr	r3, [pc, #60]	@ (800421c <_svfiprintf_r+0x1f8>)
 80041de:	9803      	ldr	r0, [sp, #12]
 80041e0:	e000      	b.n	80041e4 <_svfiprintf_r+0x1c0>
 80041e2:	bf00      	nop
 80041e4:	9004      	str	r0, [sp, #16]
 80041e6:	9b04      	ldr	r3, [sp, #16]
 80041e8:	3301      	adds	r3, #1
 80041ea:	d1d6      	bne.n	800419a <_svfiprintf_r+0x176>
 80041ec:	89bb      	ldrh	r3, [r7, #12]
 80041ee:	980d      	ldr	r0, [sp, #52]	@ 0x34
 80041f0:	065b      	lsls	r3, r3, #25
 80041f2:	d500      	bpl.n	80041f6 <_svfiprintf_r+0x1d2>
 80041f4:	e72c      	b.n	8004050 <_svfiprintf_r+0x2c>
 80041f6:	b021      	add	sp, #132	@ 0x84
 80041f8:	bdf0      	pop	{r4, r5, r6, r7, pc}
 80041fa:	aa07      	add	r2, sp, #28
 80041fc:	9200      	str	r2, [sp, #0]
 80041fe:	0021      	movs	r1, r4
 8004200:	003a      	movs	r2, r7
 8004202:	4b06      	ldr	r3, [pc, #24]	@ (800421c <_svfiprintf_r+0x1f8>)
 8004204:	9803      	ldr	r0, [sp, #12]
 8004206:	f000 f87b 	bl	8004300 <_printf_i>
 800420a:	e7eb      	b.n	80041e4 <_svfiprintf_r+0x1c0>
 800420c:	080061f2 	.word	0x080061f2
 8004210:	080061f8 	.word	0x080061f8
 8004214:	080061fc 	.word	0x080061fc
 8004218:	00000000 	.word	0x00000000
 800421c:	08003f65 	.word	0x08003f65

08004220 <_printf_common>:
 8004220:	b5f7      	push	{r0, r1, r2, r4, r5, r6, r7, lr}
 8004222:	0016      	movs	r6, r2
 8004224:	9301      	str	r3, [sp, #4]
 8004226:	688a      	ldr	r2, [r1, #8]
 8004228:	690b      	ldr	r3, [r1, #16]
 800422a:	000c      	movs	r4, r1
 800422c:	9000      	str	r0, [sp, #0]
 800422e:	4293      	cmp	r3, r2
 8004230:	da00      	bge.n	8004234 <_printf_common+0x14>
 8004232:	0013      	movs	r3, r2
 8004234:	0022      	movs	r2, r4
 8004236:	6033      	str	r3, [r6, #0]
 8004238:	3243      	adds	r2, #67	@ 0x43
 800423a:	7812      	ldrb	r2, [r2, #0]
 800423c:	2a00      	cmp	r2, #0
 800423e:	d001      	beq.n	8004244 <_printf_common+0x24>
 8004240:	3301      	adds	r3, #1
 8004242:	6033      	str	r3, [r6, #0]
 8004244:	6823      	ldr	r3, [r4, #0]
 8004246:	069b      	lsls	r3, r3, #26
 8004248:	d502      	bpl.n	8004250 <_printf_common+0x30>
 800424a:	6833      	ldr	r3, [r6, #0]
 800424c:	3302      	adds	r3, #2
 800424e:	6033      	str	r3, [r6, #0]
 8004250:	6822      	ldr	r2, [r4, #0]
 8004252:	2306      	movs	r3, #6
 8004254:	0015      	movs	r5, r2
 8004256:	401d      	ands	r5, r3
 8004258:	421a      	tst	r2, r3
 800425a:	d027      	beq.n	80042ac <_printf_common+0x8c>
 800425c:	0023      	movs	r3, r4
 800425e:	3343      	adds	r3, #67	@ 0x43
 8004260:	781b      	ldrb	r3, [r3, #0]
 8004262:	1e5a      	subs	r2, r3, #1
 8004264:	4193      	sbcs	r3, r2
 8004266:	6822      	ldr	r2, [r4, #0]
 8004268:	0692      	lsls	r2, r2, #26
 800426a:	d430      	bmi.n	80042ce <_printf_common+0xae>
 800426c:	0022      	movs	r2, r4
 800426e:	9901      	ldr	r1, [sp, #4]
 8004270:	9800      	ldr	r0, [sp, #0]
 8004272:	9d08      	ldr	r5, [sp, #32]
 8004274:	3243      	adds	r2, #67	@ 0x43
 8004276:	47a8      	blx	r5
 8004278:	3001      	adds	r0, #1
 800427a:	d025      	beq.n	80042c8 <_printf_common+0xa8>
 800427c:	2206      	movs	r2, #6
 800427e:	6823      	ldr	r3, [r4, #0]
 8004280:	2500      	movs	r5, #0
 8004282:	4013      	ands	r3, r2
 8004284:	2b04      	cmp	r3, #4
 8004286:	d105      	bne.n	8004294 <_printf_common+0x74>
 8004288:	6833      	ldr	r3, [r6, #0]
 800428a:	68e5      	ldr	r5, [r4, #12]
 800428c:	1aed      	subs	r5, r5, r3
 800428e:	43eb      	mvns	r3, r5
 8004290:	17db      	asrs	r3, r3, #31
 8004292:	401d      	ands	r5, r3
 8004294:	68a3      	ldr	r3, [r4, #8]
 8004296:	6922      	ldr	r2, [r4, #16]
 8004298:	4293      	cmp	r3, r2
 800429a:	dd01      	ble.n	80042a0 <_printf_common+0x80>
 800429c:	1a9b      	subs	r3, r3, r2
 800429e:	18ed      	adds	r5, r5, r3
 80042a0:	2600      	movs	r6, #0
 80042a2:	42b5      	cmp	r5, r6
 80042a4:	d120      	bne.n	80042e8 <_printf_common+0xc8>
 80042a6:	2000      	movs	r0, #0
 80042a8:	e010      	b.n	80042cc <_printf_common+0xac>
 80042aa:	3501      	adds	r5, #1
 80042ac:	68e3      	ldr	r3, [r4, #12]
 80042ae:	6832      	ldr	r2, [r6, #0]
 80042b0:	1a9b      	subs	r3, r3, r2
 80042b2:	42ab      	cmp	r3, r5
 80042b4:	ddd2      	ble.n	800425c <_printf_common+0x3c>
 80042b6:	0022      	movs	r2, r4
 80042b8:	2301      	movs	r3, #1
 80042ba:	9901      	ldr	r1, [sp, #4]
 80042bc:	9800      	ldr	r0, [sp, #0]
 80042be:	9f08      	ldr	r7, [sp, #32]
 80042c0:	3219      	adds	r2, #25
 80042c2:	47b8      	blx	r7
 80042c4:	3001      	adds	r0, #1
 80042c6:	d1f0      	bne.n	80042aa <_printf_common+0x8a>
 80042c8:	2001      	movs	r0, #1
 80042ca:	4240      	negs	r0, r0
 80042cc:	bdfe      	pop	{r1, r2, r3, r4, r5, r6, r7, pc}
 80042ce:	2030      	movs	r0, #48	@ 0x30
 80042d0:	18e1      	adds	r1, r4, r3
 80042d2:	3143      	adds	r1, #67	@ 0x43
 80042d4:	7008      	strb	r0, [r1, #0]
 80042d6:	0021      	movs	r1, r4
 80042d8:	1c5a      	adds	r2, r3, #1
 80042da:	3145      	adds	r1, #69	@ 0x45
 80042dc:	7809      	ldrb	r1, [r1, #0]
 80042de:	18a2      	adds	r2, r4, r2
 80042e0:	3243      	adds	r2, #67	@ 0x43
 80042e2:	3302      	adds	r3, #2
 80042e4:	7011      	strb	r1, [r2, #0]
 80042e6:	e7c1      	b.n	800426c <_printf_common+0x4c>
 80042e8:	0022      	movs	r2, r4
 80042ea:	2301      	movs	r3, #1
 80042ec:	9901      	ldr	r1, [sp, #4]
 80042ee:	9800      	ldr	r0, [sp, #0]
 80042f0:	9f08      	ldr	r7, [sp, #32]
 80042f2:	321a      	adds	r2, #26
 80042f4:	47b8      	blx	r7
 80042f6:	3001      	adds	r0, #1
 80042f8:	d0e6      	beq.n	80042c8 <_printf_common+0xa8>
 80042fa:	3601      	adds	r6, #1
 80042fc:	e7d1      	b.n	80042a2 <_printf_common+0x82>
	...

08004300 <_printf_i>:
 8004300:	b5f0      	push	{r4, r5, r6, r7, lr}
 8004302:	b08b      	sub	sp, #44	@ 0x2c
 8004304:	9206      	str	r2, [sp, #24]
 8004306:	000a      	movs	r2, r1
 8004308:	3243      	adds	r2, #67	@ 0x43
 800430a:	9307      	str	r3, [sp, #28]
 800430c:	9005      	str	r0, [sp, #20]
 800430e:	9203      	str	r2, [sp, #12]
 8004310:	7e0a      	ldrb	r2, [r1, #24]
 8004312:	000c      	movs	r4, r1
 8004314:	9b10      	ldr	r3, [sp, #64]	@ 0x40
 8004316:	2a78      	cmp	r2, #120	@ 0x78
 8004318:	d809      	bhi.n	800432e <_printf_i+0x2e>
 800431a:	2a62      	cmp	r2, #98	@ 0x62
 800431c:	d80b      	bhi.n	8004336 <_printf_i+0x36>
 800431e:	2a00      	cmp	r2, #0
 8004320:	d100      	bne.n	8004324 <_printf_i+0x24>
 8004322:	e0bc      	b.n	800449e <_printf_i+0x19e>
 8004324:	497b      	ldr	r1, [pc, #492]	@ (8004514 <_printf_i+0x214>)
 8004326:	9104      	str	r1, [sp, #16]
 8004328:	2a58      	cmp	r2, #88	@ 0x58
 800432a:	d100      	bne.n	800432e <_printf_i+0x2e>
 800432c:	e090      	b.n	8004450 <_printf_i+0x150>
 800432e:	0025      	movs	r5, r4
 8004330:	3542      	adds	r5, #66	@ 0x42
 8004332:	702a      	strb	r2, [r5, #0]
 8004334:	e022      	b.n	800437c <_printf_i+0x7c>
 8004336:	0010      	movs	r0, r2
 8004338:	3863      	subs	r0, #99	@ 0x63
 800433a:	2815      	cmp	r0, #21
 800433c:	d8f7      	bhi.n	800432e <_printf_i+0x2e>
 800433e:	f7fb fef5 	bl	800012c <__gnu_thumb1_case_shi>
 8004342:	0016      	.short	0x0016
 8004344:	fff6001f 	.word	0xfff6001f
 8004348:	fff6fff6 	.word	0xfff6fff6
 800434c:	001ffff6 	.word	0x001ffff6
 8004350:	fff6fff6 	.word	0xfff6fff6
 8004354:	fff6fff6 	.word	0xfff6fff6
 8004358:	003600a1 	.word	0x003600a1
 800435c:	fff60080 	.word	0xfff60080
 8004360:	00b2fff6 	.word	0x00b2fff6
 8004364:	0036fff6 	.word	0x0036fff6
 8004368:	fff6fff6 	.word	0xfff6fff6
 800436c:	0084      	.short	0x0084
 800436e:	0025      	movs	r5, r4
 8004370:	681a      	ldr	r2, [r3, #0]
 8004372:	3542      	adds	r5, #66	@ 0x42
 8004374:	1d11      	adds	r1, r2, #4
 8004376:	6019      	str	r1, [r3, #0]
 8004378:	6813      	ldr	r3, [r2, #0]
 800437a:	702b      	strb	r3, [r5, #0]
 800437c:	2301      	movs	r3, #1
 800437e:	e0a0      	b.n	80044c2 <_printf_i+0x1c2>
 8004380:	6818      	ldr	r0, [r3, #0]
 8004382:	6809      	ldr	r1, [r1, #0]
 8004384:	1d02      	adds	r2, r0, #4
 8004386:	060d      	lsls	r5, r1, #24
 8004388:	d50b      	bpl.n	80043a2 <_printf_i+0xa2>
 800438a:	6806      	ldr	r6, [r0, #0]
 800438c:	601a      	str	r2, [r3, #0]
 800438e:	2e00      	cmp	r6, #0
 8004390:	da03      	bge.n	800439a <_printf_i+0x9a>
 8004392:	232d      	movs	r3, #45	@ 0x2d
 8004394:	9a03      	ldr	r2, [sp, #12]
 8004396:	4276      	negs	r6, r6
 8004398:	7013      	strb	r3, [r2, #0]
 800439a:	4b5e      	ldr	r3, [pc, #376]	@ (8004514 <_printf_i+0x214>)
 800439c:	270a      	movs	r7, #10
 800439e:	9304      	str	r3, [sp, #16]
 80043a0:	e018      	b.n	80043d4 <_printf_i+0xd4>
 80043a2:	6806      	ldr	r6, [r0, #0]
 80043a4:	601a      	str	r2, [r3, #0]
 80043a6:	0649      	lsls	r1, r1, #25
 80043a8:	d5f1      	bpl.n	800438e <_printf_i+0x8e>
 80043aa:	b236      	sxth	r6, r6
 80043ac:	e7ef      	b.n	800438e <_printf_i+0x8e>
 80043ae:	6808      	ldr	r0, [r1, #0]
 80043b0:	6819      	ldr	r1, [r3, #0]
 80043b2:	c940      	ldmia	r1!, {r6}
 80043b4:	0605      	lsls	r5, r0, #24
 80043b6:	d402      	bmi.n	80043be <_printf_i+0xbe>
 80043b8:	0640      	lsls	r0, r0, #25
 80043ba:	d500      	bpl.n	80043be <_printf_i+0xbe>
 80043bc:	b2b6      	uxth	r6, r6
 80043be:	6019      	str	r1, [r3, #0]
 80043c0:	4b54      	ldr	r3, [pc, #336]	@ (8004514 <_printf_i+0x214>)
 80043c2:	270a      	movs	r7, #10
 80043c4:	9304      	str	r3, [sp, #16]
 80043c6:	2a6f      	cmp	r2, #111	@ 0x6f
 80043c8:	d100      	bne.n	80043cc <_printf_i+0xcc>
 80043ca:	3f02      	subs	r7, #2
 80043cc:	0023      	movs	r3, r4
 80043ce:	2200      	movs	r2, #0
 80043d0:	3343      	adds	r3, #67	@ 0x43
 80043d2:	701a      	strb	r2, [r3, #0]
 80043d4:	6863      	ldr	r3, [r4, #4]
 80043d6:	60a3      	str	r3, [r4, #8]
 80043d8:	2b00      	cmp	r3, #0
 80043da:	db03      	blt.n	80043e4 <_printf_i+0xe4>
 80043dc:	2104      	movs	r1, #4
 80043de:	6822      	ldr	r2, [r4, #0]
 80043e0:	438a      	bics	r2, r1
 80043e2:	6022      	str	r2, [r4, #0]
 80043e4:	2e00      	cmp	r6, #0
 80043e6:	d102      	bne.n	80043ee <_printf_i+0xee>
 80043e8:	9d03      	ldr	r5, [sp, #12]
 80043ea:	2b00      	cmp	r3, #0
 80043ec:	d00c      	beq.n	8004408 <_printf_i+0x108>
 80043ee:	9d03      	ldr	r5, [sp, #12]
 80043f0:	0030      	movs	r0, r6
 80043f2:	0039      	movs	r1, r7
 80043f4:	f7fb ff2a 	bl	800024c <__aeabi_uidivmod>
 80043f8:	9b04      	ldr	r3, [sp, #16]
 80043fa:	3d01      	subs	r5, #1
 80043fc:	5c5b      	ldrb	r3, [r3, r1]
 80043fe:	702b      	strb	r3, [r5, #0]
 8004400:	0033      	movs	r3, r6
 8004402:	0006      	movs	r6, r0
 8004404:	429f      	cmp	r7, r3
 8004406:	d9f3      	bls.n	80043f0 <_printf_i+0xf0>
 8004408:	2f08      	cmp	r7, #8
 800440a:	d109      	bne.n	8004420 <_printf_i+0x120>
 800440c:	6823      	ldr	r3, [r4, #0]
 800440e:	07db      	lsls	r3, r3, #31
 8004410:	d506      	bpl.n	8004420 <_printf_i+0x120>
 8004412:	6862      	ldr	r2, [r4, #4]
 8004414:	6923      	ldr	r3, [r4, #16]
 8004416:	429a      	cmp	r2, r3
 8004418:	dc02      	bgt.n	8004420 <_printf_i+0x120>
 800441a:	2330      	movs	r3, #48	@ 0x30
 800441c:	3d01      	subs	r5, #1
 800441e:	702b      	strb	r3, [r5, #0]
 8004420:	9b03      	ldr	r3, [sp, #12]
 8004422:	1b5b      	subs	r3, r3, r5
 8004424:	6123      	str	r3, [r4, #16]
 8004426:	9b07      	ldr	r3, [sp, #28]
 8004428:	0021      	movs	r1, r4
 800442a:	9300      	str	r3, [sp, #0]
 800442c:	9805      	ldr	r0, [sp, #20]
 800442e:	9b06      	ldr	r3, [sp, #24]
 8004430:	aa09      	add	r2, sp, #36	@ 0x24
 8004432:	f7ff fef5 	bl	8004220 <_printf_common>
 8004436:	3001      	adds	r0, #1
 8004438:	d148      	bne.n	80044cc <_printf_i+0x1cc>
 800443a:	2001      	movs	r0, #1
 800443c:	4240      	negs	r0, r0
 800443e:	b00b      	add	sp, #44	@ 0x2c
 8004440:	bdf0      	pop	{r4, r5, r6, r7, pc}
 8004442:	2220      	movs	r2, #32
 8004444:	6809      	ldr	r1, [r1, #0]
 8004446:	430a      	orrs	r2, r1
 8004448:	6022      	str	r2, [r4, #0]
 800444a:	2278      	movs	r2, #120	@ 0x78
 800444c:	4932      	ldr	r1, [pc, #200]	@ (8004518 <_printf_i+0x218>)
 800444e:	9104      	str	r1, [sp, #16]
 8004450:	0021      	movs	r1, r4
 8004452:	3145      	adds	r1, #69	@ 0x45
 8004454:	700a      	strb	r2, [r1, #0]
 8004456:	6819      	ldr	r1, [r3, #0]
 8004458:	6822      	ldr	r2, [r4, #0]
 800445a:	c940      	ldmia	r1!, {r6}
 800445c:	0610      	lsls	r0, r2, #24
 800445e:	d402      	bmi.n	8004466 <_printf_i+0x166>
 8004460:	0650      	lsls	r0, r2, #25
 8004462:	d500      	bpl.n	8004466 <_printf_i+0x166>
 8004464:	b2b6      	uxth	r6, r6
 8004466:	6019      	str	r1, [r3, #0]
 8004468:	07d3      	lsls	r3, r2, #31
 800446a:	d502      	bpl.n	8004472 <_printf_i+0x172>
 800446c:	2320      	movs	r3, #32
 800446e:	4313      	orrs	r3, r2
 8004470:	6023      	str	r3, [r4, #0]
 8004472:	2e00      	cmp	r6, #0
 8004474:	d001      	beq.n	800447a <_printf_i+0x17a>
 8004476:	2710      	movs	r7, #16
 8004478:	e7a8      	b.n	80043cc <_printf_i+0xcc>
 800447a:	2220      	movs	r2, #32
 800447c:	6823      	ldr	r3, [r4, #0]
 800447e:	4393      	bics	r3, r2
 8004480:	6023      	str	r3, [r4, #0]
 8004482:	e7f8      	b.n	8004476 <_printf_i+0x176>
 8004484:	681a      	ldr	r2, [r3, #0]
 8004486:	680d      	ldr	r5, [r1, #0]
 8004488:	1d10      	adds	r0, r2, #4
 800448a:	6949      	ldr	r1, [r1, #20]
 800448c:	6018      	str	r0, [r3, #0]
 800448e:	6813      	ldr	r3, [r2, #0]
 8004490:	062e      	lsls	r6, r5, #24
 8004492:	d501      	bpl.n	8004498 <_printf_i+0x198>
 8004494:	6019      	str	r1, [r3, #0]
 8004496:	e002      	b.n	800449e <_printf_i+0x19e>
 8004498:	066d      	lsls	r5, r5, #25
 800449a:	d5fb      	bpl.n	8004494 <_printf_i+0x194>
 800449c:	8019      	strh	r1, [r3, #0]
 800449e:	2300      	movs	r3, #0
 80044a0:	9d03      	ldr	r5, [sp, #12]
 80044a2:	6123      	str	r3, [r4, #16]
 80044a4:	e7bf      	b.n	8004426 <_printf_i+0x126>
 80044a6:	681a      	ldr	r2, [r3, #0]
 80044a8:	1d11      	adds	r1, r2, #4
 80044aa:	6019      	str	r1, [r3, #0]
 80044ac:	6815      	ldr	r5, [r2, #0]
 80044ae:	2100      	movs	r1, #0
 80044b0:	0028      	movs	r0, r5
 80044b2:	6862      	ldr	r2, [r4, #4]
 80044b4:	f000 f858 	bl	8004568 <memchr>
 80044b8:	2800      	cmp	r0, #0
 80044ba:	d001      	beq.n	80044c0 <_printf_i+0x1c0>
 80044bc:	1b40      	subs	r0, r0, r5
 80044be:	6060      	str	r0, [r4, #4]
 80044c0:	6863      	ldr	r3, [r4, #4]
 80044c2:	6123      	str	r3, [r4, #16]
 80044c4:	2300      	movs	r3, #0
 80044c6:	9a03      	ldr	r2, [sp, #12]
 80044c8:	7013      	strb	r3, [r2, #0]
 80044ca:	e7ac      	b.n	8004426 <_printf_i+0x126>
 80044cc:	002a      	movs	r2, r5
 80044ce:	6923      	ldr	r3, [r4, #16]
 80044d0:	9906      	ldr	r1, [sp, #24]
 80044d2:	9805      	ldr	r0, [sp, #20]
 80044d4:	9d07      	ldr	r5, [sp, #28]
 80044d6:	47a8      	blx	r5
 80044d8:	3001      	adds	r0, #1
 80044da:	d0ae      	beq.n	800443a <_printf_i+0x13a>
 80044dc:	6823      	ldr	r3, [r4, #0]
 80044de:	079b      	lsls	r3, r3, #30
 80044e0:	d415      	bmi.n	800450e <_printf_i+0x20e>
 80044e2:	9b09      	ldr	r3, [sp, #36]	@ 0x24
 80044e4:	68e0      	ldr	r0, [r4, #12]
 80044e6:	4298      	cmp	r0, r3
 80044e8:	daa9      	bge.n	800443e <_printf_i+0x13e>
 80044ea:	0018      	movs	r0, r3
 80044ec:	e7a7      	b.n	800443e <_printf_i+0x13e>
 80044ee:	0022      	movs	r2, r4
 80044f0:	2301      	movs	r3, #1
 80044f2:	9906      	ldr	r1, [sp, #24]
 80044f4:	9805      	ldr	r0, [sp, #20]
 80044f6:	9e07      	ldr	r6, [sp, #28]
 80044f8:	3219      	adds	r2, #25
 80044fa:	47b0      	blx	r6
 80044fc:	3001      	adds	r0, #1
 80044fe:	d09c      	beq.n	800443a <_printf_i+0x13a>
 8004500:	3501      	adds	r5, #1
 8004502:	68e3      	ldr	r3, [r4, #12]
 8004504:	9a09      	ldr	r2, [sp, #36]	@ 0x24
 8004506:	1a9b      	subs	r3, r3, r2
 8004508:	42ab      	cmp	r3, r5
 800450a:	dcf0      	bgt.n	80044ee <_printf_i+0x1ee>
 800450c:	e7e9      	b.n	80044e2 <_printf_i+0x1e2>
 800450e:	2500      	movs	r5, #0
 8004510:	e7f7      	b.n	8004502 <_printf_i+0x202>
 8004512:	46c0      	nop			@ (mov r8, r8)
 8004514:	08006203 	.word	0x08006203
 8004518:	08006214 	.word	0x08006214

0800451c <memmove>:
 800451c:	b510      	push	{r4, lr}
 800451e:	4288      	cmp	r0, r1
 8004520:	d806      	bhi.n	8004530 <memmove+0x14>
 8004522:	2300      	movs	r3, #0
 8004524:	429a      	cmp	r2, r3
 8004526:	d008      	beq.n	800453a <memmove+0x1e>
 8004528:	5ccc      	ldrb	r4, [r1, r3]
 800452a:	54c4      	strb	r4, [r0, r3]
 800452c:	3301      	adds	r3, #1
 800452e:	e7f9      	b.n	8004524 <memmove+0x8>
 8004530:	188b      	adds	r3, r1, r2
 8004532:	4298      	cmp	r0, r3
 8004534:	d2f5      	bcs.n	8004522 <memmove+0x6>
 8004536:	3a01      	subs	r2, #1
 8004538:	d200      	bcs.n	800453c <memmove+0x20>
 800453a:	bd10      	pop	{r4, pc}
 800453c:	5c8b      	ldrb	r3, [r1, r2]
 800453e:	5483      	strb	r3, [r0, r2]
 8004540:	e7f9      	b.n	8004536 <memmove+0x1a>
	...

08004544 <_sbrk_r>:
 8004544:	2300      	movs	r3, #0
 8004546:	b570      	push	{r4, r5, r6, lr}
 8004548:	4d06      	ldr	r5, [pc, #24]	@ (8004564 <_sbrk_r+0x20>)
 800454a:	0004      	movs	r4, r0
 800454c:	0008      	movs	r0, r1
 800454e:	602b      	str	r3, [r5, #0]
 8004550:	f7fd faaa 	bl	8001aa8 <_sbrk>
 8004554:	1c43      	adds	r3, r0, #1
 8004556:	d103      	bne.n	8004560 <_sbrk_r+0x1c>
 8004558:	682b      	ldr	r3, [r5, #0]
 800455a:	2b00      	cmp	r3, #0
 800455c:	d000      	beq.n	8004560 <_sbrk_r+0x1c>
 800455e:	6023      	str	r3, [r4, #0]
 8004560:	bd70      	pop	{r4, r5, r6, pc}
 8004562:	46c0      	nop			@ (mov r8, r8)
 8004564:	20000964 	.word	0x20000964

08004568 <memchr>:
 8004568:	b2c9      	uxtb	r1, r1
 800456a:	1882      	adds	r2, r0, r2
 800456c:	4290      	cmp	r0, r2
 800456e:	d101      	bne.n	8004574 <memchr+0xc>
 8004570:	2000      	movs	r0, #0
 8004572:	4770      	bx	lr
 8004574:	7803      	ldrb	r3, [r0, #0]
 8004576:	428b      	cmp	r3, r1
 8004578:	d0fb      	beq.n	8004572 <memchr+0xa>
 800457a:	3001      	adds	r0, #1
 800457c:	e7f6      	b.n	800456c <memchr+0x4>

0800457e <_realloc_r>:
 800457e:	b5f7      	push	{r0, r1, r2, r4, r5, r6, r7, lr}
 8004580:	0006      	movs	r6, r0
 8004582:	000c      	movs	r4, r1
 8004584:	0015      	movs	r5, r2
 8004586:	2900      	cmp	r1, #0
 8004588:	d105      	bne.n	8004596 <_realloc_r+0x18>
 800458a:	0011      	movs	r1, r2
 800458c:	f7ff fc5a 	bl	8003e44 <_malloc_r>
 8004590:	0004      	movs	r4, r0
 8004592:	0020      	movs	r0, r4
 8004594:	bdfe      	pop	{r1, r2, r3, r4, r5, r6, r7, pc}
 8004596:	2a00      	cmp	r2, #0
 8004598:	d103      	bne.n	80045a2 <_realloc_r+0x24>
 800459a:	f7ff fbe7 	bl	8003d6c <_free_r>
 800459e:	2400      	movs	r4, #0
 80045a0:	e7f7      	b.n	8004592 <_realloc_r+0x14>
 80045a2:	f000 f81b 	bl	80045dc <_malloc_usable_size_r>
 80045a6:	0007      	movs	r7, r0
 80045a8:	4285      	cmp	r5, r0
 80045aa:	d802      	bhi.n	80045b2 <_realloc_r+0x34>
 80045ac:	0843      	lsrs	r3, r0, #1
 80045ae:	42ab      	cmp	r3, r5
 80045b0:	d3ef      	bcc.n	8004592 <_realloc_r+0x14>
 80045b2:	0029      	movs	r1, r5
 80045b4:	0030      	movs	r0, r6
 80045b6:	f7ff fc45 	bl	8003e44 <_malloc_r>
 80045ba:	9001      	str	r0, [sp, #4]
 80045bc:	2800      	cmp	r0, #0
 80045be:	d0ee      	beq.n	800459e <_realloc_r+0x20>
 80045c0:	002a      	movs	r2, r5
 80045c2:	42bd      	cmp	r5, r7
 80045c4:	d900      	bls.n	80045c8 <_realloc_r+0x4a>
 80045c6:	003a      	movs	r2, r7
 80045c8:	0021      	movs	r1, r4
 80045ca:	9801      	ldr	r0, [sp, #4]
 80045cc:	f7ff fbc4 	bl	8003d58 <memcpy>
 80045d0:	0021      	movs	r1, r4
 80045d2:	0030      	movs	r0, r6
 80045d4:	f7ff fbca 	bl	8003d6c <_free_r>
 80045d8:	9c01      	ldr	r4, [sp, #4]
 80045da:	e7da      	b.n	8004592 <_realloc_r+0x14>

080045dc <_malloc_usable_size_r>:
 80045dc:	1f0b      	subs	r3, r1, #4
 80045de:	681b      	ldr	r3, [r3, #0]
 80045e0:	1f18      	subs	r0, r3, #4
 80045e2:	2b00      	cmp	r3, #0
 80045e4:	da01      	bge.n	80045ea <_malloc_usable_size_r+0xe>
 80045e6:	580b      	ldr	r3, [r1, r0]
 80045e8:	18c0      	adds	r0, r0, r3
 80045ea:	4770      	bx	lr

080045ec <_init>:
 80045ec:	b5f8      	push	{r3, r4, r5, r6, r7, lr}
 80045ee:	46c0      	nop			@ (mov r8, r8)
 80045f0:	bcf8      	pop	{r3, r4, r5, r6, r7}
 80045f2:	bc08      	pop	{r3}
 80045f4:	469e      	mov	lr, r3
 80045f6:	4770      	bx	lr

080045f8 <_fini>:
 80045f8:	b5f8      	push	{r3, r4, r5, r6, r7, lr}
 80045fa:	46c0      	nop			@ (mov r8, r8)
 80045fc:	bcf8      	pop	{r3, r4, r5, r6, r7}
 80045fe:	bc08      	pop	{r3}
 8004600:	469e      	mov	lr, r3
 8004602:	4770      	bx	lr
